ccopy_reg
_reconstructor
p0
(cPopulation
Population
p1
c__builtin__
object
p2
Ntp3
Rp4
(dp5
Vpopulation_id
p6
I953
sVpopulation
p7
(lp8
g0
(cGenome
Genome
p9
g2
Ntp10
Rp11
(dp12
Vgenome_id
p13
I23760
sVgenome
p14
(lp15
g0
(cGene
Gene
p16
g2
Ntp17
Rp18
(dp19
Vgene_id
p20
I78210
sVname
p21
VRSI_window
p22
sVvalue
p23
I233
sVlower_bound
p24
I1
sVupper_bound
p25
I300
sVtype
p26
Vint
p27
sbag0
(g16
g2
Ntp28
Rp29
(dp30
g20
I78211
sg21
VRSI_p1
p31
sg23
F0.7092826746356652
sg24
I-1
sg25
I1
sg26
Vfloat
p32
sbag0
(g16
g2
Ntp33
Rp34
(dp35
g20
I78212
sg21
VRSI_p2
p36
sg23
F-0.06949100185611064
sg24
I-1
sg25
I1
sg26
g32
sbag0
(g16
g2
Ntp37
Rp38
(dp39
g20
I78213
sg21
VRSI_p3
p40
sg23
F0.8264133587141537
sg24
I-1
sg25
I1
sg26
g32
sbag0
(g16
g2
Ntp41
Rp42
(dp43
g20
I78214
sg21
VRSI_p4
p44
sg23
F0.2637326506867066
sg24
I-1
sg25
I1
sg26
g32
sbag0
(g16
g2
Ntp45
Rp46
(dp47
g20
I78215
sg21
VRSI_low_membership
p48
sg23
(lp49
F61.85556010424398
aF87.81855634627108
asg24
I0
sg25
I100
sg26
Vlinear_membership
p50
sbag0
(g16
g2
Ntp51
Rp52
(dp53
g20
I78216
sg21
VRSI_middle_membership
p54
sg23
(lp55
F21.27732786443895
aF42.00899665871131
aF71.51197260845683
asg24
I0
sg25
I100
sg26
Vtriangular_membership
p56
sbag0
(g16
g2
Ntp57
Rp58
(dp59
g20
I78217
sg21
VRSI_high_membership
p60
sg23
(lp61
F49.1098017265361
aF75.17098814893139
asg24
I0
sg25
I100
sg26
g50
sbag0
(g16
g2
Ntp62
Rp63
(dp64
g20
I78218
sg21
Ventry_condition
p65
sg23
(lp66
F13.24267423817685
aF21.654357212880015
asg24
I1
sg25
I100
sg26
g65
sbag0
(g16
g2
Ntp67
Rp68
(dp69
g20
I78219
sg21
Vstop_loss
p70
sg23
F0.40353343339809217
sg24
F0.01
sg25
F0.99
sg26
g32
sbag0
(g16
g2
Ntp71
Rp72
(dp73
g20
I78220
sg21
Vz_rolling_window
p74
sg23
I220
sg24
I1
sg25
I300
sg26
g27
sbasVgenome_dict
p75
(dp76
g22
g18
sg31
g29
sg36
g34
sg40
g38
sg44
g42
sg48
g46
sg54
g52
sg60
g58
sg65
g63
sg70
g68
sg74
g72
ssVfitness
p77
Nsbag0
(g9
g2
Ntp78
Rp79
(dp80
g13
I23689
sg14
(lp81
g0
(g16
g2
Ntp82
Rp83
(dp84
g20
I77990
sg21
g22
sg23
I239
sg24
I1
sg25
I300
sg26
g27
sbag0
(g16
g2
Ntp85
Rp86
(dp87
g20
I77991
sg21
g31
sg23
F0.732653901005756
sg24
I-1
sg25
I1
sg26
g32
sbag0
(g16
g2
Ntp88
Rp89
(dp90
g20
I77992
sg21
g36
sg23
F0.6811694175331964
sg24
I-1
sg25
I1
sg26
g32
sbag0
(g16
g2
Ntp91
Rp92
(dp93
g20
I77993
sg21
g40
sg23
F0.16998193289918906
sg24
I-1
sg25
I1
sg26
g32
sbag0
(g16
g2
Ntp94
Rp95
(dp96
g20
I77994
sg21
g44
sg23
F-0.27123532677504725
sg24
I-1
sg25
I1
sg26
g32
sbag0
(g16
g2
Ntp97
Rp98
(dp99
g20
I77995
sg21
g48
sg23
(lp100
F61.14108497261319
aF86.24773175329143
asg24
I0
sg25
I100
sg26
g50
sbag0
(g16
g2
Ntp101
Rp102
(dp103
g20
I77996
sg21
g54
sg23
(lp104
F24.55632838408713
aF42.823421320854465
aF65.71820503586974
asg24
I0
sg25
I100
sg26
g56
sbag0
(g16
g2
Ntp105
Rp106
(dp107
g20
I77997
sg21
g60
sg23
(lp108
F60.28420329699296
aF74.44662444080033
asg24
I0
sg25
I100
sg26
g50
sbag0
(g16
g2
Ntp109
Rp110
(dp111
g20
I77998
sg21
g65
sg23
(lp112
F13.629581796571802
aF21.929700084061054
asg24
I1
sg25
I100
sg26
g65
sbag0
(g16
g2
Ntp113
Rp114
(dp115
g20
I77999
sg21
g70
sg23
F0.7886368513050686
sg24
F0.01
sg25
F0.99
sg26
g32
sbag0
(g16
g2
Ntp116
Rp117
(dp118
g20
I78000
sg21
g74
sg23
I220
sg24
I1
sg25
I300
sg26
g27
sbasg75
(dp119
g22
g83
sg31
g86
sg36
g89
sg40
g92
sg44
g95
sg48
g98
sg54
g102
sg60
g106
sg65
g110
sg70
g114
sg74
g117
ssg77
Nsbag0
(g9
g2
Ntp120
Rp121
(dp122
g13
I23780
sg14
(lp123
g0
(g16
g2
Ntp124
Rp125
(dp126
g20
I77628
sg21
g22
sg23
I242
sg24
I1
sg25
I300
sg26
g27
sbag0
(g16
g2
Ntp127
Rp128
(dp129
g20
I76925
sg21
g31
sg23
F0.46201215113809113
sg24
I-1
sg25
I1
sg26
g32
sbag0
(g16
g2
Ntp130
Rp131
(dp132
g20
I76927
sg21
g36
sg23
F-0.08334622591026353
sg24
I-1
sg25
I1
sg26
g32
sbag0
(g16
g2
Ntp133
Rp134
(dp135
g20
I77993
sg21
g40
sg23
F0.16998193289918906
sg24
I-1
sg25
I1
sg26
g32
sbag0
(g16
g2
Ntp136
Rp137
(dp138
g20
I77400
sg21
g44
sg23
F-0.3285344721008293
sg24
I-1
sg25
I1
sg26
g32
sbag0
(g16
g2
Ntp139
Rp140
(dp141
g20
I77973
sg21
g48
sg23
(lp142
F48.888234260561525
aF82.75288276481385
asg24
I0
sg25
I100
sg26
g50
sbag0
(g16
g2
Ntp143
Rp144
(dp145
g20
I77974
sg21
g54
sg23
(lp146
F22.215357512494844
aF41.867267942124606
aF71.58544306915779
asg24
I0
sg25
I100
sg26
g56
sbag0
(g16
g2
Ntp147
Rp148
(dp149
g20
I77997
sg21
g60
sg23
(lp150
F60.28420329699296
aF74.44662444080033
asg24
I0
sg25
I100
sg26
g50
sbag0
(g16
g2
Ntp151
Rp152
(dp153
g20
I77976
sg21
g65
sg23
(lp154
F13.157222434175727
aF21.580810521826344
asg24
I1
sg25
I100
sg26
g65
sbag0
(g16
g2
Ntp155
Rp156
(dp157
g20
I77999
sg21
g70
sg23
F0.7886368513050686
sg24
F0.01
sg25
F0.99
sg26
g32
sbag0
(g16
g2
Ntp158
Rp159
(dp160
g20
I78000
sg21
g74
sg23
I220
sg24
I1
sg25
I300
sg26
g27
sbasg75
(dp161
g22
g125
sg31
g128
sg36
g131
sg40
g134
sg44
g137
sg48
g140
sg54
g144
sg60
g148
sg65
g152
sg70
g156
sg74
g159
ssg77
Nsbag0
(g9
g2
Ntp162
Rp163
(dp164
g13
I23728
sg14
(lp165
g0
(g16
g2
Ntp166
Rp167
(dp168
g20
I77100
sg21
g22
sg23
I241
sg24
I1
sg25
I300
sg26
g27
sbag0
(g16
g2
Ntp169
Rp170
(dp171
g20
I77102
sg21
g31
sg23
F0.7866475913897588
sg24
I-1
sg25
I1
sg26
g32
sbag0
(g16
g2
Ntp172
Rp173
(dp174
g20
I77104
sg21
g36
sg23
F-0.09956548992244454
sg24
I-1
sg25
I1
sg26
g32
sbag0
(g16
g2
Ntp175
Rp176
(dp177
g20
I76644
sg21
g40
sg23
F-0.35266933507441417
sg24
I-1
sg25
I1
sg26
g32
sbag0
(g16
g2
Ntp178
Rp179
(dp180
g20
I76646
sg21
g44
sg23
F0.42065746226596684
sg24
I-1
sg25
I1
sg26
g32
sbag0
(g16
g2
Ntp181
Rp182
(dp183
g20
I77110
sg21
g48
sg23
(lp184
F64.18864034847176
aF88.80055758825374
asg24
I0
sg25
I100
sg26
g50
sbag0
(g16
g2
Ntp185
Rp186
(dp187
g20
I77112
sg21
g54
sg23
(lp188
F21.762051171267373
aF42.46963393212779
aF71.74774133178855
asg24
I0
sg25
I100
sg26
g56
sbag0
(g16
g2
Ntp189
Rp190
(dp191
g20
I77114
sg21
g60
sg23
(lp192
F61.53718980435317
aF78.38480440415788
asg24
I0
sg25
I100
sg26
g50
sbag0
(g16
g2
Ntp193
Rp194
(dp195
g20
I76609
sg21
g65
sg23
(lp196
F13.066694720401252
aF21.55179017638906
asg24
I1
sg25
I100
sg26
g65
sbag0
(g16
g2
Ntp197
Rp198
(dp199
g20
I76788
sg21
g70
sg23
F0.6900364716916536
sg24
F0.01
sg25
F0.99
sg26
g32
sbag0
(g16
g2
Ntp200
Rp201
(dp202
g20
I76790
sg21
g74
sg23
I219
sg24
I1
sg25
I300
sg26
g27
sbasg75
(dp203
g22
g167
sg31
g170
sg36
g173
sg40
g176
sg44
g179
sg48
g182
sg54
g186
sg60
g190
sg65
g194
sg70
g198
sg74
g201
ssg77
Nsbag0
(g9
g2
Ntp204
Rp205
(dp206
g13
I23795
sg14
(lp207
g0
(g16
g2
Ntp208
Rp209
(dp210
g20
I77990
sg21
g22
sg23
I239
sg24
I1
sg25
I300
sg26
g27
sbag0
(g16
g2
Ntp211
Rp212
(dp213
g20
I77991
sg21
g31
sg23
F0.732653901005756
sg24
I-1
sg25
I1
sg26
g32
sbag0
(g16
g2
Ntp214
Rp215
(dp216
g20
I77992
sg21
g36
sg23
F0.6811694175331964
sg24
I-1
sg25
I1
sg26
g32
sbag0
(g16
g2
Ntp217
Rp218
(dp219
g20
I76644
sg21
g40
sg23
F-0.8311136596344063
sg24
I-1
sg25
I1
sg26
g32
sbag0
(g16
g2
Ntp220
Rp221
(dp222
g20
I77994
sg21
g44
sg23
F-0.27123532677504725
sg24
I-1
sg25
I1
sg26
g32
sbag0
(g16
g2
Ntp223
Rp224
(dp225
g20
I77995
sg21
g48
sg23
(lp226
F61.14108497261319
aF86.24773175329143
asg24
I0
sg25
I100
sg26
g50
sbag0
(g16
g2
Ntp227
Rp228
(dp229
g20
I77974
sg21
g54
sg23
(lp230
F22.645211449701453
aF41.34281911496049
aF71.17296762268131
asg24
I0
sg25
I100
sg26
g56
sbag0
(g16
g2
Ntp231
Rp232
(dp233
g20
I77975
sg21
g60
sg23
(lp234
F51.94371675613796
aF77.2718711960195
asg24
I0
sg25
I100
sg26
g50
sbag0
(g16
g2
Ntp235
Rp236
(dp237
g20
I77976
sg21
g65
sg23
(lp238
F12.114332405167332
aF20.411786511782815
asg24
I1
sg25
I100
sg26
g65
sbag0
(g16
g2
Ntp239
Rp240
(dp241
g20
I77999
sg21
g70
sg23
F0.7886368513050686
sg24
F0.01
sg25
F0.99
sg26
g32
sbag0
(g16
g2
Ntp242
Rp243
(dp244
g20
I78000
sg21
g74
sg23
I220
sg24
I1
sg25
I300
sg26
g27
sbasg75
(dp245
g22
g209
sg31
g212
sg36
g215
sg40
g218
sg44
g221
sg48
g224
sg54
g228
sg60
g232
sg65
g236
sg70
g240
sg74
g243
ssg77
Nsbag0
(g9
g2
Ntp246
Rp247
(dp248
g13
I23721
sg14
(lp249
g0
(g16
g2
Ntp250
Rp251
(dp252
g20
I77968
sg21
g22
sg23
I250
sg24
I1
sg25
I300
sg26
g27
sbag0
(g16
g2
Ntp253
Rp254
(dp255
g20
I77969
sg21
g31
sg23
F0.8039157676808156
sg24
I-1
sg25
I1
sg26
g32
sbag0
(g16
g2
Ntp256
Rp257
(dp258
g20
I77970
sg21
g36
sg23
F-0.056418464495022295
sg24
I-1
sg25
I1
sg26
g32
sbag0
(g16
g2
Ntp259
Rp260
(dp261
g20
I77971
sg21
g40
sg23
F-0.04674548348124842
sg24
I-1
sg25
I1
sg26
g32
sbag0
(g16
g2
Ntp262
Rp263
(dp264
g20
I77877
sg21
g44
sg23
F0.41841454627259006
sg24
I-1
sg25
I1
sg26
g32
sbag0
(g16
g2
Ntp265
Rp266
(dp267
g20
I77879
sg21
g48
sg23
(lp268
F62.7648074639862
aF88.82075915675863
asg24
I0
sg25
I100
sg26
g50
sbag0
(g16
g2
Ntp269
Rp270
(dp271
g20
I75869
sg21
g54
sg23
(lp272
F20.471903216756807
aF45.319395177914025
aF74.67862559429574
asg24
I0
sg25
I100
sg26
g56
sbag0
(g16
g2
Ntp273
Rp274
(dp275
g20
I76652
sg21
g60
sg23
(lp276
F66.33458059672587
aF82.6382174052772
asg24
I0
sg25
I100
sg26
g50
sbag0
(g16
g2
Ntp277
Rp278
(dp279
g20
I76939
sg21
g65
sg23
(lp280
F12.880514910924202
aF21.48488007351225
asg24
I1
sg25
I100
sg26
g65
sbag0
(g16
g2
Ntp281
Rp282
(dp283
g20
I77887
sg21
g70
sg23
F0.45519268399042334
sg24
F0.01
sg25
F0.99
sg26
g32
sbag0
(g16
g2
Ntp284
Rp285
(dp286
g20
I77120
sg21
g74
sg23
I218
sg24
I1
sg25
I300
sg26
g27
sbasg75
(dp287
g22
g251
sg31
g254
sg36
g257
sg40
g260
sg44
g263
sg48
g266
sg54
g270
sg60
g274
sg65
g278
sg70
g282
sg74
g285
ssg77
Nsbag0
(g9
g2
Ntp288
Rp289
(dp290
g13
I23721
sg14
(lp291
g0
(g16
g2
Ntp292
Rp293
(dp294
g20
I77968
sg21
g22
sg23
I250
sg24
I1
sg25
I300
sg26
g27
sbag0
(g16
g2
Ntp295
Rp296
(dp297
g20
I77969
sg21
g31
sg23
F0.8039157676808156
sg24
I-1
sg25
I1
sg26
g32
sbag0
(g16
g2
Ntp298
Rp299
(dp300
g20
I77970
sg21
g36
sg23
F-0.056418464495022295
sg24
I-1
sg25
I1
sg26
g32
sbag0
(g16
g2
Ntp301
Rp302
(dp303
g20
I77971
sg21
g40
sg23
F-0.04674548348124842
sg24
I-1
sg25
I1
sg26
g32
sbag0
(g16
g2
Ntp304
Rp305
(dp306
g20
I77877
sg21
g44
sg23
F0.41841454627259006
sg24
I-1
sg25
I1
sg26
g32
sbag0
(g16
g2
Ntp307
Rp308
(dp309
g20
I77879
sg21
g48
sg23
(lp310
F62.7648074639862
aF88.82075915675863
asg24
I0
sg25
I100
sg26
g50
sbag0
(g16
g2
Ntp311
Rp312
(dp313
g20
I75869
sg21
g54
sg23
(lp314
F20.471903216756807
aF45.319395177914025
aF74.67862559429574
asg24
I0
sg25
I100
sg26
g56
sbag0
(g16
g2
Ntp315
Rp316
(dp317
g20
I76652
sg21
g60
sg23
(lp318
F66.33458059672587
aF82.6382174052772
asg24
I0
sg25
I100
sg26
g50
sbag0
(g16
g2
Ntp319
Rp320
(dp321
g20
I76939
sg21
g65
sg23
(lp322
F12.880514910924202
aF21.48488007351225
asg24
I1
sg25
I100
sg26
g65
sbag0
(g16
g2
Ntp323
Rp324
(dp325
g20
I77887
sg21
g70
sg23
F0.45519268399042334
sg24
F0.01
sg25
F0.99
sg26
g32
sbag0
(g16
g2
Ntp326
Rp327
(dp328
g20
I77120
sg21
g74
sg23
I218
sg24
I1
sg25
I300
sg26
g27
sbasg75
(dp329
g22
g293
sg31
g296
sg36
g299
sg40
g302
sg44
g305
sg48
g308
sg54
g312
sg60
g316
sg65
g320
sg70
g324
sg74
g327
ssg77
Nsbag0
(g9
g2
Ntp330
Rp331
(dp332
g13
I23789
sg14
(lp333
g0
(g16
g2
Ntp334
Rp335
(dp336
g20
I78265
sg21
g22
sg23
I230
sg24
I1
sg25
I300
sg26
g27
sbag0
(g16
g2
Ntp337
Rp338
(dp339
g20
I78267
sg21
g31
sg23
F0.6524242338930553
sg24
I-1
sg25
I1
sg26
g32
sbag0
(g16
g2
Ntp340
Rp341
(dp342
g20
I78269
sg21
g36
sg23
F-0.0755173765869426
sg24
I-1
sg25
I1
sg26
g32
sbag0
(g16
g2
Ntp343
Rp344
(dp345
g20
I78271
sg21
g40
sg23
F0.1892136922712992
sg24
I-1
sg25
I1
sg26
g32
sbag0
(g16
g2
Ntp346
Rp347
(dp348
g20
I78273
sg21
g44
sg23
F-0.7889713325713693
sg24
I-1
sg25
I1
sg26
g32
sbag0
(g16
g2
Ntp349
Rp350
(dp351
g20
I78275
sg21
g48
sg23
(lp352
F51.97256158895363
aF84.33826895004499
asg24
I0
sg25
I100
sg26
g50
sbag0
(g16
g2
Ntp353
Rp354
(dp355
g20
I78277
sg21
g54
sg23
(lp356
F22.24981109381611
aF41.89579089561596
aF71.61922688939238
asg24
I0
sg25
I100
sg26
g56
sbag0
(g16
g2
Ntp357
Rp358
(dp359
g20
I78279
sg21
g60
sg23
(lp360
F60.30599374716042
aF74.50509724455468
asg24
I0
sg25
I100
sg26
g50
sbag0
(g16
g2
Ntp361
Rp362
(dp363
g20
I78281
sg21
g65
sg23
(lp364
F13.091281117831976
aF21.532105576346588
asg24
I1
sg25
I100
sg26
g65
sbag0
(g16
g2
Ntp365
Rp366
(dp367
g20
I78283
sg21
g70
sg23
F0.7886368513050686
sg24
F0.01
sg25
F0.99
sg26
g32
sbag0
(g16
g2
Ntp368
Rp369
(dp370
g20
I78285
sg21
g74
sg23
I220
sg24
I1
sg25
I300
sg26
g27
sbasg75
(dp371
g22
g335
sg31
g338
sg36
g341
sg40
g344
sg44
g347
sg48
g350
sg54
g354
sg60
g358
sg65
g362
sg70
g366
sg74
g369
ssg77
Nsbag0
(g9
g2
Ntp372
Rp373
(dp374
g13
I23810
sg14
(lp375
g0
(g16
g2
Ntp376
Rp377
(dp378
g20
I77100
sg21
g22
sg23
I241
sg24
I1
sg25
I300
sg26
g27
sbag0
(g16
g2
Ntp379
Rp380
(dp381
g20
I77102
sg21
g31
sg23
F0.7866475913897588
sg24
I-1
sg25
I1
sg26
g32
sbag0
(g16
g2
Ntp382
Rp383
(dp384
g20
I77104
sg21
g36
sg23
F-0.09956548992244454
sg24
I-1
sg25
I1
sg26
g32
sbag0
(g16
g2
Ntp385
Rp386
(dp387
g20
I76599
sg21
g40
sg23
F0.5960584066569988
sg24
I-1
sg25
I1
sg26
g32
sbag0
(g16
g2
Ntp388
Rp389
(dp390
g20
I76542
sg21
g44
sg23
F0.32200518941673556
sg24
I-1
sg25
I1
sg26
g32
sbag0
(g16
g2
Ntp391
Rp392
(dp393
g20
I77110
sg21
g48
sg23
(lp394
F64.18864034847176
aF88.80055758825374
asg24
I0
sg25
I100
sg26
g50
sbag0
(g16
g2
Ntp395
Rp396
(dp397
g20
I77112
sg21
g54
sg23
(lp398
F21.762051171267373
aF42.46963393212779
aF71.74774133178855
asg24
I0
sg25
I100
sg26
g56
sbag0
(g16
g2
Ntp399
Rp400
(dp401
g20
I77114
sg21
g60
sg23
(lp402
F61.53718980435317
aF78.38480440415788
asg24
I0
sg25
I100
sg26
g50
sbag0
(g16
g2
Ntp403
Rp404
(dp405
g20
I77116
sg21
g65
sg23
(lp406
F13.061904469053648
aF21.618608897561465
asg24
I1
sg25
I100
sg26
g65
sbag0
(g16
g2
Ntp407
Rp408
(dp409
g20
I77118
sg21
g70
sg23
F0.5122222182355997
sg24
F0.01
sg25
F0.99
sg26
g32
sbag0
(g16
g2
Ntp410
Rp411
(dp412
g20
I77120
sg21
g74
sg23
I218
sg24
I1
sg25
I300
sg26
g27
sbasg75
(dp413
g22
g377
sg31
g380
sg36
g383
sg40
g386
sg44
g389
sg48
g392
sg54
g396
sg60
g400
sg65
g404
sg70
g408
sg74
g411
ssg77
Nsbag0
(g9
g2
Ntp414
Rp415
(dp416
g13
I23813
sg14
(lp417
g0
(g16
g2
Ntp418
Rp419
(dp420
g20
I78320
sg21
g22
sg23
I235
sg24
I1
sg25
I300
sg26
g27
sbag0
(g16
g2
Ntp421
Rp422
(dp423
g20
I78321
sg21
g31
sg23
F0.6829753667117705
sg24
I-1
sg25
I1
sg26
g32
sbag0
(g16
g2
Ntp424
Rp425
(dp426
g20
I78322
sg21
g36
sg23
F-0.08774577540348846
sg24
I-1
sg25
I1
sg26
g32
sbag0
(g16
g2
Ntp427
Rp428
(dp429
g20
I78323
sg21
g40
sg23
F-0.16543207194206616
sg24
I-1
sg25
I1
sg26
g32
sbag0
(g16
g2
Ntp430
Rp431
(dp432
g20
I78324
sg21
g44
sg23
F-0.5126789395126596
sg24
I-1
sg25
I1
sg26
g32
sbag0
(g16
g2
Ntp433
Rp434
(dp435
g20
I78325
sg21
g48
sg23
(lp436
F56.65645880252519
aF86.05092849694329
asg24
I0
sg25
I100
sg26
g50
sbag0
(g16
g2
Ntp437
Rp438
(dp439
g20
I78326
sg21
g54
sg23
(lp440
F15.107093672562486
aF59.433774182249614
aF80.81205121179322
asg24
I0
sg25
I100
sg26
g56
sbag0
(g16
g2
Ntp441
Rp442
(dp443
g20
I78327
sg21
g60
sg23
(lp444
F60.771429355754705
aF75.97135093170623
asg24
I0
sg25
I100
sg26
g50
sbag0
(g16
g2
Ntp445
Rp446
(dp447
g20
I78328
sg21
g65
sg23
(lp448
F12.96909688772125
aF21.507832075282103
asg24
I1
sg25
I100
sg26
g65
sbag0
(g16
g2
Ntp449
Rp450
(dp451
g20
I78329
sg21
g70
sg23
F0.5293904099330157
sg24
F0.01
sg25
F0.99
sg26
g32
sbag0
(g16
g2
Ntp452
Rp453
(dp454
g20
I78330
sg21
g74
sg23
I218
sg24
I1
sg25
I300
sg26
g27
sbasg75
(dp455
g22
g419
sg31
g422
sg36
g425
sg40
g428
sg44
g431
sg48
g434
sg54
g438
sg60
g442
sg65
g446
sg70
g450
sg74
g453
ssg77
Nsbag0
(g9
g2
Ntp456
Rp457
(dp458
g13
I23800
sg14
(lp459
g0
(g16
g2
Ntp460
Rp461
(dp462
g20
I77990
sg21
g22
sg23
I239
sg24
I1
sg25
I300
sg26
g27
sbag0
(g16
g2
Ntp463
Rp464
(dp465
g20
I77991
sg21
g31
sg23
F0.732653901005756
sg24
I-1
sg25
I1
sg26
g32
sbag0
(g16
g2
Ntp466
Rp467
(dp468
g20
I77992
sg21
g36
sg23
F0.6811694175331964
sg24
I-1
sg25
I1
sg26
g32
sbag0
(g16
g2
Ntp469
Rp470
(dp471
g20
I76644
sg21
g40
sg23
F-0.8311136596344063
sg24
I-1
sg25
I1
sg26
g32
sbag0
(g16
g2
Ntp472
Rp473
(dp474
g20
I76542
sg21
g44
sg23
F0.32200518941673556
sg24
I-1
sg25
I1
sg26
g32
sbag0
(g16
g2
Ntp475
Rp476
(dp477
g20
I77973
sg21
g48
sg23
(lp478
F99.4479222147986
aF99.90797992682357
asg24
I0
sg25
I100
sg26
g50
sbag0
(g16
g2
Ntp479
Rp480
(dp481
g20
I77996
sg21
g54
sg23
(lp482
F24.55632838408713
aF42.823421320854465
aF65.71820503586974
asg24
I0
sg25
I100
sg26
g56
sbag0
(g16
g2
Ntp483
Rp484
(dp485
g20
I76490
sg21
g60
sg23
(lp486
F61.28023173128623
aF77.11938130101181
asg24
I0
sg25
I100
sg26
g50
sbag0
(g16
g2
Ntp487
Rp488
(dp489
g20
I77998
sg21
g65
sg23
(lp490
F13.629581796571802
aF21.929700084061054
asg24
I1
sg25
I100
sg26
g65
sbag0
(g16
g2
Ntp491
Rp492
(dp493
g20
I77999
sg21
g70
sg23
F0.7886368513050686
sg24
F0.01
sg25
F0.99
sg26
g32
sbag0
(g16
g2
Ntp494
Rp495
(dp496
g20
I78000
sg21
g74
sg23
I220
sg24
I1
sg25
I300
sg26
g27
sbasg75
(dp497
g22
g461
sg31
g464
sg36
g467
sg40
g470
sg44
g473
sg48
g476
sg54
g480
sg60
g484
sg65
g488
sg70
g492
sg74
g495
ssg77
Nsbag0
(g9
g2
Ntp498
Rp499
(dp500
g13
I23811
sg14
(lp501
g0
(g16
g2
Ntp502
Rp503
(dp504
g20
I77990
sg21
g22
sg23
I241
sg24
I1
sg25
I300
sg26
g27
sbag0
(g16
g2
Ntp505
Rp506
(dp507
g20
I77991
sg21
g31
sg23
F0.514952668300968
sg24
I-1
sg25
I1
sg26
g32
sbag0
(g16
g2
Ntp508
Rp509
(dp510
g20
I77104
sg21
g36
sg23
F-0.09956548992244454
sg24
I-1
sg25
I1
sg26
g32
sbag0
(g16
g2
Ntp511
Rp512
(dp513
g20
I76644
sg21
g40
sg23
F-0.35266933507441417
sg24
I-1
sg25
I1
sg26
g32
sbag0
(g16
g2
Ntp514
Rp515
(dp516
g20
I76646
sg21
g44
sg23
F0.42065746226596684
sg24
I-1
sg25
I1
sg26
g32
sbag0
(g16
g2
Ntp517
Rp518
(dp519
g20
I77110
sg21
g48
sg23
(lp520
F64.18864034847176
aF88.80055758825374
asg24
I0
sg25
I100
sg26
g50
sbag0
(g16
g2
Ntp521
Rp522
(dp523
g20
I77996
sg21
g54
sg23
(lp524
F24.55632838408713
aF42.823421320854465
aF65.71820503586974
asg24
I0
sg25
I100
sg26
g56
sbag0
(g16
g2
Ntp525
Rp526
(dp527
g20
I77114
sg21
g60
sg23
(lp528
F61.53718980435317
aF78.38480440415788
asg24
I0
sg25
I100
sg26
g50
sbag0
(g16
g2
Ntp529
Rp530
(dp531
g20
I76939
sg21
g65
sg23
(lp532
F12.880514910924202
aF21.48488007351225
asg24
I1
sg25
I100
sg26
g65
sbag0
(g16
g2
Ntp533
Rp534
(dp535
g20
I77977
sg21
g70
sg23
F0.6473016009906638
sg24
F0.01
sg25
F0.99
sg26
g32
sbag0
(g16
g2
Ntp536
Rp537
(dp538
g20
I77978
sg21
g74
sg23
I220
sg24
I1
sg25
I300
sg26
g27
sbasg75
(dp539
g22
g503
sg31
g506
sg36
g509
sg40
g512
sg44
g515
sg48
g518
sg54
g522
sg60
g526
sg65
g530
sg70
g534
sg74
g537
ssg77
Nsbag0
(g9
g2
Ntp540
Rp541
(dp542
g13
I23614
sg14
(lp543
g0
(g16
g2
Ntp544
Rp545
(dp546
g20
I76923
sg21
g22
sg23
I233
sg24
I1
sg25
I300
sg26
g27
sbag0
(g16
g2
Ntp547
Rp548
(dp549
g20
I76925
sg21
g31
sg23
F0.6485409541142723
sg24
I-1
sg25
I1
sg26
g32
sbag0
(g16
g2
Ntp550
Rp551
(dp552
g20
I76927
sg21
g36
sg23
F-0.08334622591026353
sg24
I-1
sg25
I1
sg26
g32
sbag0
(g16
g2
Ntp553
Rp554
(dp555
g20
I76929
sg21
g40
sg23
F0.5633329667194543
sg24
I-1
sg25
I1
sg26
g32
sbag0
(g16
g2
Ntp556
Rp557
(dp558
g20
I76931
sg21
g44
sg23
F0.958253334789544
sg24
I-1
sg25
I1
sg26
g32
sbag0
(g16
g2
Ntp559
Rp560
(dp561
g20
I76933
sg21
g48
sg23
(lp562
F62.52993530100208
aF87.8998490576524
asg24
I0
sg25
I100
sg26
g50
sbag0
(g16
g2
Ntp563
Rp564
(dp565
g20
I76935
sg21
g54
sg23
(lp566
F20.60148353282237
aF45.057990602894414
aF74.25197820644604
asg24
I0
sg25
I100
sg26
g56
sbag0
(g16
g2
Ntp567
Rp568
(dp569
g20
I76937
sg21
g60
sg23
(lp570
F65.99507437274814
aF82.26751105785372
asg24
I0
sg25
I100
sg26
g50
sbag0
(g16
g2
Ntp571
Rp572
(dp573
g20
I76939
sg21
g65
sg23
(lp574
F12.880514910924202
aF21.48488007351225
asg24
I1
sg25
I100
sg26
g65
sbag0
(g16
g2
Ntp575
Rp576
(dp577
g20
I76941
sg21
g70
sg23
F0.8895415819462252
sg24
F0.01
sg25
F0.99
sg26
g32
sbag0
(g16
g2
Ntp578
Rp579
(dp580
g20
I76943
sg21
g74
sg23
I226
sg24
I1
sg25
I300
sg26
g27
sbasg75
(dp581
g22
g545
sg31
g548
sg36
g551
sg40
g554
sg44
g557
sg48
g560
sg54
g564
sg60
g568
sg65
g572
sg70
g576
sg74
g579
ssg77
Nsbag0
(g9
g2
Ntp582
Rp583
(dp584
g13
I23689
sg14
(lp585
g0
(g16
g2
Ntp586
Rp587
(dp588
g20
I77990
sg21
g22
sg23
I239
sg24
I1
sg25
I300
sg26
g27
sbag0
(g16
g2
Ntp589
Rp590
(dp591
g20
I77991
sg21
g31
sg23
F0.732653901005756
sg24
I-1
sg25
I1
sg26
g32
sbag0
(g16
g2
Ntp592
Rp593
(dp594
g20
I77992
sg21
g36
sg23
F0.6811694175331964
sg24
I-1
sg25
I1
sg26
g32
sbag0
(g16
g2
Ntp595
Rp596
(dp597
g20
I77993
sg21
g40
sg23
F0.16998193289918906
sg24
I-1
sg25
I1
sg26
g32
sbag0
(g16
g2
Ntp598
Rp599
(dp600
g20
I77994
sg21
g44
sg23
F-0.27123532677504725
sg24
I-1
sg25
I1
sg26
g32
sbag0
(g16
g2
Ntp601
Rp602
(dp603
g20
I77995
sg21
g48
sg23
(lp604
F61.14108497261319
aF86.24773175329143
asg24
I0
sg25
I100
sg26
g50
sbag0
(g16
g2
Ntp605
Rp606
(dp607
g20
I77996
sg21
g54
sg23
(lp608
F24.55632838408713
aF42.823421320854465
aF65.71820503586974
asg24
I0
sg25
I100
sg26
g56
sbag0
(g16
g2
Ntp609
Rp610
(dp611
g20
I77997
sg21
g60
sg23
(lp612
F60.28420329699296
aF74.44662444080033
asg24
I0
sg25
I100
sg26
g50
sbag0
(g16
g2
Ntp613
Rp614
(dp615
g20
I77998
sg21
g65
sg23
(lp616
F13.629581796571802
aF21.929700084061054
asg24
I1
sg25
I100
sg26
g65
sbag0
(g16
g2
Ntp617
Rp618
(dp619
g20
I77999
sg21
g70
sg23
F0.7886368513050686
sg24
F0.01
sg25
F0.99
sg26
g32
sbag0
(g16
g2
Ntp620
Rp621
(dp622
g20
I78000
sg21
g74
sg23
I220
sg24
I1
sg25
I300
sg26
g27
sbasg75
(dp623
g22
g587
sg31
g590
sg36
g593
sg40
g596
sg44
g599
sg48
g602
sg54
g606
sg60
g610
sg65
g614
sg70
g618
sg74
g621
ssg77
Nsbag0
(g9
g2
Ntp624
Rp625
(dp626
g13
I23779
sg14
(lp627
g0
(g16
g2
Ntp628
Rp629
(dp630
g20
I76923
sg21
g22
sg23
I233
sg24
I1
sg25
I300
sg26
g27
sbag0
(g16
g2
Ntp631
Rp632
(dp633
g20
I77630
sg21
g31
sg23
F0.7932316073201133
sg24
I-1
sg25
I1
sg26
g32
sbag0
(g16
g2
Ntp634
Rp635
(dp636
g20
I77632
sg21
g36
sg23
F-0.07914258323633691
sg24
I-1
sg25
I1
sg26
g32
sbag0
(g16
g2
Ntp637
Rp638
(dp639
g20
I76599
sg21
g40
sg23
F-0.5671181715040772
sg24
I-1
sg25
I1
sg26
g32
sbag0
(g16
g2
Ntp640
Rp641
(dp642
g20
I77613
sg21
g44
sg23
F0.09869671318041151
sg24
I-1
sg25
I1
sg26
g32
sbag0
(g16
g2
Ntp643
Rp644
(dp645
g20
I77615
sg21
g48
sg23
(lp646
F62.99033810624796
aF88.58825487237644
asg24
I0
sg25
I100
sg26
g50
sbag0
(g16
g2
Ntp647
Rp648
(dp649
g20
I77617
sg21
g54
sg23
(lp650
F21.60631724736923
aF43.054720694836604
aF72.83662010123102
asg24
I0
sg25
I100
sg26
g56
sbag0
(g16
g2
Ntp651
Rp652
(dp653
g20
I76490
sg21
g60
sg23
(lp654
F61.28023173128623
aF77.11938130101181
asg24
I0
sg25
I100
sg26
g50
sbag0
(g16
g2
Ntp655
Rp656
(dp657
g20
I77621
sg21
g65
sg23
(lp658
F13.141183862473955
aF21.775109812210996
asg24
I1
sg25
I100
sg26
g65
sbag0
(g16
g2
Ntp659
Rp660
(dp661
g20
I77623
sg21
g70
sg23
F0.5453966271812835
sg24
F0.01
sg25
F0.99
sg26
g32
sbag0
(g16
g2
Ntp662
Rp663
(dp664
g20
I72819
sg21
g74
sg23
I219
sg24
I1
sg25
I300
sg26
g27
sbasg75
(dp665
g22
g629
sg31
g632
sg36
g635
sg40
g638
sg44
g641
sg48
g644
sg54
g648
sg60
g652
sg65
g656
sg70
g660
sg74
g663
ssg77
Nsbag0
(g9
g2
Ntp666
Rp667
(dp668
g13
I23689
sg14
(lp669
g0
(g16
g2
Ntp670
Rp671
(dp672
g20
I77990
sg21
g22
sg23
I239
sg24
I1
sg25
I300
sg26
g27
sbag0
(g16
g2
Ntp673
Rp674
(dp675
g20
I77991
sg21
g31
sg23
F0.732653901005756
sg24
I-1
sg25
I1
sg26
g32
sbag0
(g16
g2
Ntp676
Rp677
(dp678
g20
I77992
sg21
g36
sg23
F0.6811694175331964
sg24
I-1
sg25
I1
sg26
g32
sbag0
(g16
g2
Ntp679
Rp680
(dp681
g20
I77993
sg21
g40
sg23
F0.16998193289918906
sg24
I-1
sg25
I1
sg26
g32
sbag0
(g16
g2
Ntp682
Rp683
(dp684
g20
I77994
sg21
g44
sg23
F-0.27123532677504725
sg24
I-1
sg25
I1
sg26
g32
sbag0
(g16
g2
Ntp685
Rp686
(dp687
g20
I77995
sg21
g48
sg23
(lp688
F61.14108497261319
aF86.24773175329143
asg24
I0
sg25
I100
sg26
g50
sbag0
(g16
g2
Ntp689
Rp690
(dp691
g20
I77996
sg21
g54
sg23
(lp692
F24.55632838408713
aF42.823421320854465
aF65.71820503586974
asg24
I0
sg25
I100
sg26
g56
sbag0
(g16
g2
Ntp693
Rp694
(dp695
g20
I77997
sg21
g60
sg23
(lp696
F60.28420329699296
aF74.44662444080033
asg24
I0
sg25
I100
sg26
g50
sbag0
(g16
g2
Ntp697
Rp698
(dp699
g20
I77998
sg21
g65
sg23
(lp700
F13.629581796571802
aF21.929700084061054
asg24
I1
sg25
I100
sg26
g65
sbag0
(g16
g2
Ntp701
Rp702
(dp703
g20
I77999
sg21
g70
sg23
F0.7886368513050686
sg24
F0.01
sg25
F0.99
sg26
g32
sbag0
(g16
g2
Ntp704
Rp705
(dp706
g20
I78000
sg21
g74
sg23
I220
sg24
I1
sg25
I300
sg26
g27
sbasg75
(dp707
g22
g671
sg31
g674
sg36
g677
sg40
g680
sg44
g683
sg48
g686
sg54
g690
sg60
g694
sg65
g698
sg70
g702
sg74
g705
ssg77
Nsbag0
(g9
g2
Ntp708
Rp709
(dp710
g13
I23829
sg14
(lp711
g0
(g16
g2
Ntp712
Rp713
(dp714
g20
I77968
sg21
g22
sg23
I250
sg24
I1
sg25
I300
sg26
g27
sbag0
(g16
g2
Ntp715
Rp716
(dp717
g20
I77991
sg21
g31
sg23
F0.732653901005756
sg24
I-1
sg25
I1
sg26
g32
sbag0
(g16
g2
Ntp718
Rp719
(dp720
g20
I77992
sg21
g36
sg23
F0.6811694175331964
sg24
I-1
sg25
I1
sg26
g32
sbag0
(g16
g2
Ntp721
Rp722
(dp723
g20
I78140
sg21
g40
sg23
F0.7023020503478319
sg24
I-1
sg25
I1
sg26
g32
sbag0
(g16
g2
Ntp724
Rp725
(dp726
g20
I76542
sg21
g44
sg23
F0.32200518941673556
sg24
I-1
sg25
I1
sg26
g32
sbag0
(g16
g2
Ntp727
Rp728
(dp729
g20
I78144
sg21
g48
sg23
(lp730
F66.15858112296496
aF71.66572633040849
asg24
I0
sg25
I100
sg26
g50
sbag0
(g16
g2
Ntp731
Rp732
(dp733
g20
I78146
sg21
g54
sg23
(lp734
F21.458416221443596
aF41.35936962455294
aF70.91691938439968
asg24
I0
sg25
I100
sg26
g56
sbag0
(g16
g2
Ntp735
Rp736
(dp737
g20
I77975
sg21
g60
sg23
(lp738
F51.94371675613796
aF77.2718711960195
asg24
I0
sg25
I100
sg26
g50
sbag0
(g16
g2
Ntp739
Rp740
(dp741
g20
I77998
sg21
g65
sg23
(lp742
F13.629581796571802
aF21.929700084061054
asg24
I1
sg25
I100
sg26
g65
sbag0
(g16
g2
Ntp743
Rp744
(dp745
g20
I77999
sg21
g70
sg23
F0.7886368513050686
sg24
F0.01
sg25
F0.99
sg26
g32
sbag0
(g16
g2
Ntp746
Rp747
(dp748
g20
I77978
sg21
g74
sg23
I219
sg24
I1
sg25
I300
sg26
g27
sbasg75
(dp749
g22
g713
sg31
g716
sg36
g719
sg40
g722
sg44
g725
sg48
g728
sg54
g732
sg60
g736
sg65
g740
sg70
g744
sg74
g747
ssg77
Nsbag0
(g9
g2
Ntp750
Rp751
(dp752
g13
I23834
sg14
(lp753
g0
(g16
g2
Ntp754
Rp755
(dp756
g20
I77100
sg21
g22
sg23
I241
sg24
I1
sg25
I300
sg26
g27
sbag0
(g16
g2
Ntp757
Rp758
(dp759
g20
I77102
sg21
g31
sg23
F0.7866475913897588
sg24
I-1
sg25
I1
sg26
g32
sbag0
(g16
g2
Ntp760
Rp761
(dp762
g20
I77104
sg21
g36
sg23
F-0.09956548992244454
sg24
I-1
sg25
I1
sg26
g32
sbag0
(g16
g2
Ntp763
Rp764
(dp765
g20
I76599
sg21
g40
sg23
F0.5960584066569988
sg24
I-1
sg25
I1
sg26
g32
sbag0
(g16
g2
Ntp766
Rp767
(dp768
g20
I76542
sg21
g44
sg23
F0.32200518941673556
sg24
I-1
sg25
I1
sg26
g32
sbag0
(g16
g2
Ntp769
Rp770
(dp771
g20
I77110
sg21
g48
sg23
(lp772
F64.18864034847176
aF88.80055758825374
asg24
I0
sg25
I100
sg26
g50
sbag0
(g16
g2
Ntp773
Rp774
(dp775
g20
I77112
sg21
g54
sg23
(lp776
F21.762051171267373
aF42.46963393212779
aF71.74774133178855
asg24
I0
sg25
I100
sg26
g56
sbag0
(g16
g2
Ntp777
Rp778
(dp779
g20
I77114
sg21
g60
sg23
(lp780
F61.53718980435317
aF78.38480440415788
asg24
I0
sg25
I100
sg26
g50
sbag0
(g16
g2
Ntp781
Rp782
(dp783
g20
I77116
sg21
g65
sg23
(lp784
F13.061904469053648
aF21.618608897561465
asg24
I1
sg25
I100
sg26
g65
sbag0
(g16
g2
Ntp785
Rp786
(dp787
g20
I76788
sg21
g70
sg23
F0.6900364716916536
sg24
F0.01
sg25
F0.99
sg26
g32
sbag0
(g16
g2
Ntp788
Rp789
(dp790
g20
I76790
sg21
g74
sg23
I219
sg24
I1
sg25
I300
sg26
g27
sbasg75
(dp791
g22
g755
sg31
g758
sg36
g761
sg40
g764
sg44
g767
sg48
g770
sg54
g774
sg60
g778
sg65
g782
sg70
g786
sg74
g789
ssg77
Nsbag0
(g9
g2
Ntp792
Rp793
(dp794
g13
I23837
sg14
(lp795
g0
(g16
g2
Ntp796
Rp797
(dp798
g20
I78375
sg21
g22
sg23
I239
sg24
I1
sg25
I300
sg26
g27
sbag0
(g16
g2
Ntp799
Rp800
(dp801
g20
I78377
sg21
g31
sg23
F0.7862306309351386
sg24
I-1
sg25
I1
sg26
g32
sbag0
(g16
g2
Ntp802
Rp803
(dp804
g20
I78379
sg21
g36
sg23
F-0.6131343581240041
sg24
I-1
sg25
I1
sg26
g32
sbag0
(g16
g2
Ntp805
Rp806
(dp807
g20
I78381
sg21
g40
sg23
F0.8125650747989491
sg24
I-1
sg25
I1
sg26
g32
sbag0
(g16
g2
Ntp808
Rp809
(dp810
g20
I78383
sg21
g44
sg23
F0.33992742338972093
sg24
I-1
sg25
I1
sg26
g32
sbag0
(g16
g2
Ntp811
Rp812
(dp813
g20
I78385
sg21
g48
sg23
(lp814
F61.62471217264721
aF87.98647564071337
asg24
I0
sg25
I100
sg26
g50
sbag0
(g16
g2
Ntp815
Rp816
(dp817
g20
I78387
sg21
g54
sg23
(lp818
F21.363329823842562
aF41.72857203005841
aF71.26883237836839
asg24
I0
sg25
I100
sg26
g56
sbag0
(g16
g2
Ntp819
Rp820
(dp821
g20
I78389
sg21
g60
sg23
(lp822
F61.53436982706609
aF78.37118963319882
asg24
I0
sg25
I100
sg26
g50
sbag0
(g16
g2
Ntp823
Rp824
(dp825
g20
I78391
sg21
g65
sg23
(lp826
F14.163890048120669
aF22.237394532545476
asg24
I1
sg25
I100
sg26
g65
sbag0
(g16
g2
Ntp827
Rp828
(dp829
g20
I78393
sg21
g70
sg23
F0.8298258709011527
sg24
F0.01
sg25
F0.99
sg26
g32
sbag0
(g16
g2
Ntp830
Rp831
(dp832
g20
I78395
sg21
g74
sg23
I215
sg24
I1
sg25
I300
sg26
g27
sbasg75
(dp833
g22
g797
sg31
g800
sg36
g803
sg40
g806
sg44
g809
sg48
g812
sg54
g816
sg60
g820
sg65
g824
sg70
g828
sg74
g831
ssg77
Nsbag0
(g9
g2
Ntp834
Rp835
(dp836
g13
I23841
sg14
(lp837
g0
(g16
g2
Ntp838
Rp839
(dp840
g20
I78397
sg21
g22
sg23
I176
sg24
I1
sg25
I300
sg26
g27
sbag0
(g16
g2
Ntp841
Rp842
(dp843
g20
I78398
sg21
g31
sg23
F0.7470902005568614
sg24
I-1
sg25
I1
sg26
g32
sbag0
(g16
g2
Ntp844
Rp845
(dp846
g20
I78399
sg21
g36
sg23
F0.7845521633619152
sg24
I-1
sg25
I1
sg26
g32
sbag0
(g16
g2
Ntp847
Rp848
(dp849
g20
I78400
sg21
g40
sg23
F-0.402532827745015
sg24
I-1
sg25
I1
sg26
g32
sbag0
(g16
g2
Ntp850
Rp851
(dp852
g20
I78401
sg21
g44
sg23
F0.03812692676016635
sg24
I-1
sg25
I1
sg26
g32
sbag0
(g16
g2
Ntp853
Rp854
(dp855
g20
I78402
sg21
g48
sg23
(lp856
F72.46915118313693
aF91.41909229486319
asg24
I0
sg25
I100
sg26
g50
sbag0
(g16
g2
Ntp857
Rp858
(dp859
g20
I78403
sg21
g54
sg23
(lp860
F22.579132706517974
aF41.92082389506673
aF69.99667431880242
asg24
I0
sg25
I100
sg26
g56
sbag0
(g16
g2
Ntp861
Rp862
(dp863
g20
I78404
sg21
g60
sg23
(lp864
F56.31413422847714
aF77.72837802188212
asg24
I0
sg25
I100
sg26
g50
sbag0
(g16
g2
Ntp865
Rp866
(dp867
g20
I78405
sg21
g65
sg23
(lp868
F12.708192941014923
aF20.98221059524797
asg24
I1
sg25
I100
sg26
g65
sbag0
(g16
g2
Ntp869
Rp870
(dp871
g20
I78406
sg21
g70
sg23
F0.3210320740295883
sg24
F0.01
sg25
F0.99
sg26
g32
sbag0
(g16
g2
Ntp872
Rp873
(dp874
g20
I78407
sg21
g74
sg23
I221
sg24
I1
sg25
I300
sg26
g27
sbasg75
(dp875
g22
g839
sg31
g842
sg36
g845
sg40
g848
sg44
g851
sg48
g854
sg54
g858
sg60
g862
sg65
g866
sg70
g870
sg74
g873
ssg77
Nsbag0
(g9
g2
Ntp876
Rp877
(dp878
g13
I23846
sg14
(lp879
g0
(g16
g2
Ntp880
Rp881
(dp882
g20
I76638
sg21
g22
sg23
I250
sg24
I1
sg25
I300
sg26
g27
sbag0
(g16
g2
Ntp883
Rp884
(dp885
g20
I76595
sg21
g31
sg23
F0.8039157676808157
sg24
I-1
sg25
I1
sg26
g32
sbag0
(g16
g2
Ntp886
Rp887
(dp888
g20
I76333
sg21
g36
sg23
F-0.0564184644950223
sg24
I-1
sg25
I1
sg26
g32
sbag0
(g16
g2
Ntp889
Rp890
(dp891
g20
I76599
sg21
g40
sg23
F-0.5671181715040772
sg24
I-1
sg25
I1
sg26
g32
sbag0
(g16
g2
Ntp892
Rp893
(dp894
g20
I76487
sg21
g44
sg23
F-0.4738796512028194
sg24
I-1
sg25
I1
sg26
g32
sbag0
(g16
g2
Ntp895
Rp896
(dp897
g20
I76648
sg21
g48
sg23
(lp898
F69.11214601237968
aF93.14824839527718
asg24
I0
sg25
I100
sg26
g50
sbag0
(g16
g2
Ntp899
Rp900
(dp901
g20
I76489
sg21
g54
sg23
(lp902
F21.25149590942703
aF41.985511108804275
aF71.50029372646878
asg24
I0
sg25
I100
sg26
g56
sbag0
(g16
g2
Ntp903
Rp904
(dp905
g20
I76490
sg21
g60
sg23
(lp906
F61.28023173128623
aF77.11938130101181
asg24
I0
sg25
I100
sg26
g50
sbag0
(g16
g2
Ntp907
Rp908
(dp909
g20
I76786
sg21
g65
sg23
(lp910
F13.157222434175726
aF21.580810521826344
asg24
I1
sg25
I100
sg26
g65
sbag0
(g16
g2
Ntp911
Rp912
(dp913
g20
I77250
sg21
g70
sg23
F0.6531059476829189
sg24
F0.01
sg25
F0.99
sg26
g32
sbag0
(g16
g2
Ntp914
Rp915
(dp916
g20
I72819
sg21
g74
sg23
I219
sg24
I1
sg25
I300
sg26
g27
sbasg75
(dp917
g22
g881
sg31
g884
sg36
g887
sg40
g890
sg44
g893
sg48
g896
sg54
g900
sg60
g904
sg65
g908
sg70
g912
sg74
g915
ssg77
Nsbag0
(g9
g2
Ntp918
Rp919
(dp920
g13
I23853
sg14
(lp921
g0
(g16
g2
Ntp922
Rp923
(dp924
g20
I78441
sg21
g22
sg23
I245
sg24
I1
sg25
I300
sg26
g27
sbag0
(g16
g2
Ntp925
Rp926
(dp927
g20
I78442
sg21
g31
sg23
F0.45620667508636675
sg24
I-1
sg25
I1
sg26
g32
sbag0
(g16
g2
Ntp928
Rp929
(dp930
g20
I78443
sg21
g36
sg23
F0.626263434665021
sg24
I-1
sg25
I1
sg26
g32
sbag0
(g16
g2
Ntp931
Rp932
(dp933
g20
I78444
sg21
g40
sg23
F-0.6289359053474171
sg24
I-1
sg25
I1
sg26
g32
sbag0
(g16
g2
Ntp934
Rp935
(dp936
g20
I78445
sg21
g44
sg23
F0.32600049998079084
sg24
I-1
sg25
I1
sg26
g32
sbag0
(g16
g2
Ntp937
Rp938
(dp939
g20
I78446
sg21
g48
sg23
(lp940
F79.40146326379173
aF93.80213994869719
asg24
I0
sg25
I100
sg26
g50
sbag0
(g16
g2
Ntp941
Rp942
(dp943
g20
I78447
sg21
g54
sg23
(lp944
F23.225883968238993
aF43.133750153413494
aF68.40227451044142
asg24
I0
sg25
I100
sg26
g56
sbag0
(g16
g2
Ntp945
Rp946
(dp947
g20
I78448
sg21
g60
sg23
(lp948
F69.66979580794657
aF87.67065631555529
asg24
I0
sg25
I100
sg26
g50
sbag0
(g16
g2
Ntp949
Rp950
(dp951
g20
I78449
sg21
g65
sg23
(lp952
F13.419791053696411
aF21.805119592990227
asg24
I1
sg25
I100
sg26
g65
sbag0
(g16
g2
Ntp953
Rp954
(dp955
g20
I78450
sg21
g70
sg23
F0.6149556899776418
sg24
F0.01
sg25
F0.99
sg26
g32
sbag0
(g16
g2
Ntp956
Rp957
(dp958
g20
I78451
sg21
g74
sg23
I218
sg24
I1
sg25
I300
sg26
g27
sbasg75
(dp959
g22
g923
sg31
g926
sg36
g929
sg40
g932
sg44
g935
sg48
g938
sg54
g942
sg60
g946
sg65
g950
sg70
g954
sg74
g957
ssg77
Nsbag0
(g9
g2
Ntp960
Rp961
(dp962
g13
I23859
sg14
(lp963
g0
(g16
g2
Ntp964
Rp965
(dp966
g20
I78452
sg21
g22
sg23
I236
sg24
I1
sg25
I300
sg26
g27
sbag0
(g16
g2
Ntp967
Rp968
(dp969
g20
I78454
sg21
g31
sg23
F0.6511035655868972
sg24
I-1
sg25
I1
sg26
g32
sbag0
(g16
g2
Ntp970
Rp971
(dp972
g20
I78456
sg21
g36
sg23
F-0.1304649416649521
sg24
I-1
sg25
I1
sg26
g32
sbag0
(g16
g2
Ntp973
Rp974
(dp975
g20
I78458
sg21
g40
sg23
F-0.7819233049759253
sg24
I-1
sg25
I1
sg26
g32
sbag0
(g16
g2
Ntp976
Rp977
(dp978
g20
I78460
sg21
g44
sg23
F0.2981203079765511
sg24
I-1
sg25
I1
sg26
g32
sbag0
(g16
g2
Ntp979
Rp980
(dp981
g20
I78462
sg21
g48
sg23
(lp982
F48.623491045055054
aF82.9228416816007
asg24
I0
sg25
I100
sg26
g50
sbag0
(g16
g2
Ntp983
Rp984
(dp985
g20
I78464
sg21
g54
sg23
(lp986
F21.277375498275422
aF41.907199395394294
aF71.42733091305374
asg24
I0
sg25
I100
sg26
g56
sbag0
(g16
g2
Ntp987
Rp988
(dp989
g20
I78466
sg21
g60
sg23
(lp990
F61.604815324475524
aF77.11407999552702
asg24
I0
sg25
I100
sg26
g50
sbag0
(g16
g2
Ntp991
Rp992
(dp993
g20
I78468
sg21
g65
sg23
(lp994
F13.14423683993852
aF21.57121922619542
asg24
I1
sg25
I100
sg26
g65
sbag0
(g16
g2
Ntp995
Rp996
(dp997
g20
I78470
sg21
g70
sg23
F0.7886368513050686
sg24
F0.01
sg25
F0.99
sg26
g32
sbag0
(g16
g2
Ntp998
Rp999
(dp1000
g20
I78472
sg21
g74
sg23
I220
sg24
I1
sg25
I300
sg26
g27
sbasg75
(dp1001
g22
g965
sg31
g968
sg36
g971
sg40
g974
sg44
g977
sg48
g980
sg54
g984
sg60
g988
sg65
g992
sg70
g996
sg74
g999
ssg77
Nsbag0
(g9
g2
Ntp1002
Rp1003
(dp1004
g13
I23861
sg14
(lp1005
g0
(g16
g2
Ntp1006
Rp1007
(dp1008
g20
I77968
sg21
g22
sg23
I250
sg24
I1
sg25
I300
sg26
g27
sbag0
(g16
g2
Ntp1009
Rp1010
(dp1011
g20
I77969
sg21
g31
sg23
F0.8039157676808156
sg24
I-1
sg25
I1
sg26
g32
sbag0
(g16
g2
Ntp1012
Rp1013
(dp1014
g20
I77970
sg21
g36
sg23
F-0.056418464495022295
sg24
I-1
sg25
I1
sg26
g32
sbag0
(g16
g2
Ntp1015
Rp1016
(dp1017
g20
I77971
sg21
g40
sg23
F-0.04674548348124842
sg24
I-1
sg25
I1
sg26
g32
sbag0
(g16
g2
Ntp1018
Rp1019
(dp1020
g20
I77877
sg21
g44
sg23
F-0.32069839461404587
sg24
I-1
sg25
I1
sg26
g32
sbag0
(g16
g2
Ntp1021
Rp1022
(dp1023
g20
I77879
sg21
g48
sg23
(lp1024
F62.7648074639862
aF88.82075915675863
asg24
I0
sg25
I100
sg26
g50
sbag0
(g16
g2
Ntp1025
Rp1026
(dp1027
g20
I75869
sg21
g54
sg23
(lp1028
F20.471903216756807
aF45.319395177914025
aF74.67862559429574
asg24
I0
sg25
I100
sg26
g56
sbag0
(g16
g2
Ntp1029
Rp1030
(dp1031
g20
I76652
sg21
g60
sg23
(lp1032
F66.33458059672587
aF82.6382174052772
asg24
I0
sg25
I100
sg26
g50
sbag0
(g16
g2
Ntp1033
Rp1034
(dp1035
g20
I76939
sg21
g65
sg23
(lp1036
F14.181930461276151
aF20.268458565909924
asg24
I1
sg25
I100
sg26
g65
sbag0
(g16
g2
Ntp1037
Rp1038
(dp1039
g20
I77887
sg21
g70
sg23
F0.45519268399042334
sg24
F0.01
sg25
F0.99
sg26
g32
sbag0
(g16
g2
Ntp1040
Rp1041
(dp1042
g20
I77120
sg21
g74
sg23
I218
sg24
I1
sg25
I300
sg26
g27
sbasg75
(dp1043
g22
g1007
sg31
g1010
sg36
g1013
sg40
g1016
sg44
g1019
sg48
g1022
sg54
g1026
sg60
g1030
sg65
g1034
sg70
g1038
sg74
g1041
ssg77
Nsbag0
(g9
g2
Ntp1044
Rp1045
(dp1046
g13
I23864
sg14
(lp1047
g0
(g16
g2
Ntp1048
Rp1049
(dp1050
g20
I76638
sg21
g22
sg23
I250
sg24
I1
sg25
I300
sg26
g27
sbag0
(g16
g2
Ntp1051
Rp1052
(dp1053
g20
I76595
sg21
g31
sg23
F0.8039157676808157
sg24
I-1
sg25
I1
sg26
g32
sbag0
(g16
g2
Ntp1054
Rp1055
(dp1056
g20
I77697
sg21
g36
sg23
F-0.07768176839266006
sg24
I-1
sg25
I1
sg26
g32
sbag0
(g16
g2
Ntp1057
Rp1058
(dp1059
g20
I76599
sg21
g40
sg23
F-0.5671181715040772
sg24
I-1
sg25
I1
sg26
g32
sbag0
(g16
g2
Ntp1060
Rp1061
(dp1062
g20
I78196
sg21
g44
sg23
F0.42065746226596684
sg24
I-1
sg25
I1
sg26
g32
sbag0
(g16
g2
Ntp1063
Rp1064
(dp1065
g20
I76648
sg21
g48
sg23
(lp1066
F69.11214601237968
aF93.14824839527718
asg24
I0
sg25
I100
sg26
g50
sbag0
(g16
g2
Ntp1067
Rp1068
(dp1069
g20
I77974
sg21
g54
sg23
(lp1070
F22.215357512494844
aF41.867267942124606
aF71.58544306915779
asg24
I0
sg25
I100
sg26
g56
sbag0
(g16
g2
Ntp1071
Rp1072
(dp1073
g20
I77997
sg21
g60
sg23
(lp1074
F32.662203743974835
aF96.48625973759012
asg24
I0
sg25
I100
sg26
g50
sbag0
(g16
g2
Ntp1075
Rp1076
(dp1077
g20
I76786
sg21
g65
sg23
(lp1078
F13.157222434175726
aF21.580810521826344
asg24
I1
sg25
I100
sg26
g65
sbag0
(g16
g2
Ntp1079
Rp1080
(dp1081
g20
I78206
sg21
g70
sg23
F0.20554119577104252
sg24
F0.01
sg25
F0.99
sg26
g32
sbag0
(g16
g2
Ntp1082
Rp1083
(dp1084
g20
I77713
sg21
g74
sg23
I221
sg24
I1
sg25
I300
sg26
g27
sbasg75
(dp1085
g22
g1049
sg31
g1052
sg36
g1055
sg40
g1058
sg44
g1061
sg48
g1064
sg54
g1068
sg60
g1072
sg65
g1076
sg70
g1080
sg74
g1083
ssg77
Nsbag0
(g9
g2
Ntp1086
Rp1087
(dp1088
g13
I23867
sg14
(lp1089
g0
(g16
g2
Ntp1090
Rp1091
(dp1092
g20
I77100
sg21
g22
sg23
I241
sg24
I1
sg25
I300
sg26
g27
sbag0
(g16
g2
Ntp1093
Rp1094
(dp1095
g20
I77102
sg21
g31
sg23
F0.7866475913897588
sg24
I-1
sg25
I1
sg26
g32
sbag0
(g16
g2
Ntp1096
Rp1097
(dp1098
g20
I77104
sg21
g36
sg23
F-0.09956548992244454
sg24
I-1
sg25
I1
sg26
g32
sbag0
(g16
g2
Ntp1099
Rp1100
(dp1101
g20
I76599
sg21
g40
sg23
F0.5960584066569988
sg24
I-1
sg25
I1
sg26
g32
sbag0
(g16
g2
Ntp1102
Rp1103
(dp1104
g20
I76542
sg21
g44
sg23
F0.32200518941673556
sg24
I-1
sg25
I1
sg26
g32
sbag0
(g16
g2
Ntp1105
Rp1106
(dp1107
g20
I78215
sg21
g48
sg23
(lp1108
F61.85556010424398
aF87.81855634627108
asg24
I0
sg25
I100
sg26
g50
sbag0
(g16
g2
Ntp1109
Rp1110
(dp1111
g20
I78216
sg21
g54
sg23
(lp1112
F21.27732786443895
aF42.00899665871131
aF71.51197260845683
asg24
I0
sg25
I100
sg26
g56
sbag0
(g16
g2
Ntp1113
Rp1114
(dp1115
g20
I78217
sg21
g60
sg23
(lp1116
F49.1098017265361
aF75.17098814893139
asg24
I0
sg25
I100
sg26
g50
sbag0
(g16
g2
Ntp1117
Rp1118
(dp1119
g20
I78218
sg21
g65
sg23
(lp1120
F13.24267423817685
aF21.654357212880015
asg24
I1
sg25
I100
sg26
g65
sbag0
(g16
g2
Ntp1121
Rp1122
(dp1123
g20
I77118
sg21
g70
sg23
F0.5122222182355997
sg24
F0.01
sg25
F0.99
sg26
g32
sbag0
(g16
g2
Ntp1124
Rp1125
(dp1126
g20
I77120
sg21
g74
sg23
I218
sg24
I1
sg25
I300
sg26
g27
sbasg75
(dp1127
g22
g1091
sg31
g1094
sg36
g1097
sg40
g1100
sg44
g1103
sg48
g1106
sg54
g1110
sg60
g1114
sg65
g1118
sg70
g1122
sg74
g1125
ssg77
Nsbag0
(g9
g2
Ntp1128
Rp1129
(dp1130
g13
I23872
sg14
(lp1131
g0
(g16
g2
Ntp1132
Rp1133
(dp1134
g20
I78266
sg21
g22
sg23
I241
sg24
I1
sg25
I300
sg26
g27
sbag0
(g16
g2
Ntp1135
Rp1136
(dp1137
g20
I78268
sg21
g31
sg23
F0.728770621226973
sg24
I-1
sg25
I1
sg26
g32
sbag0
(g16
g2
Ntp1138
Rp1139
(dp1140
g20
I78270
sg21
g36
sg23
F0.6733405682098755
sg24
I-1
sg25
I1
sg26
g32
sbag0
(g16
g2
Ntp1141
Rp1142
(dp1143
g20
I78272
sg21
g40
sg23
F-0.9418017325731196
sg24
I-1
sg25
I1
sg26
g32
sbag0
(g16
g2
Ntp1144
Rp1145
(dp1146
g20
I78274
sg21
g44
sg23
F0.7824420498872756
sg24
I-1
sg25
I1
sg26
g32
sbag0
(g16
g2
Ntp1147
Rp1148
(dp1149
g20
I78215
sg21
g48
sg23
(lp1150
F61.85556010424398
aF87.81855634627108
asg24
I0
sg25
I100
sg26
g50
sbag0
(g16
g2
Ntp1151
Rp1152
(dp1153
g20
I78216
sg21
g54
sg23
(lp1154
F22.13547057974903
aF44.73788585703004
aF81.7326135156074
asg24
I0
sg25
I100
sg26
g56
sbag0
(g16
g2
Ntp1155
Rp1156
(dp1157
g20
I78217
sg21
g60
sg23
(lp1158
F49.1098017265361
aF75.17098814893139
asg24
I0
sg25
I100
sg26
g50
sbag0
(g16
g2
Ntp1159
Rp1160
(dp1161
g20
I78218
sg21
g65
sg23
(lp1162
F13.24267423817685
aF21.654357212880015
asg24
I1
sg25
I100
sg26
g65
sbag0
(g16
g2
Ntp1163
Rp1164
(dp1165
g20
I77118
sg21
g70
sg23
F0.5122222182355997
sg24
F0.01
sg25
F0.99
sg26
g32
sbag0
(g16
g2
Ntp1166
Rp1167
(dp1168
g20
I77120
sg21
g74
sg23
I218
sg24
I1
sg25
I300
sg26
g27
sbasg75
(dp1169
g22
g1133
sg31
g1136
sg36
g1139
sg40
g1142
sg44
g1145
sg48
g1148
sg54
g1152
sg60
g1156
sg65
g1160
sg70
g1164
sg74
g1167
ssg77
Nsbag0
(g9
g2
Ntp1170
Rp1171
(dp1172
g13
I23875
sg14
(lp1173
g0
(g16
g2
Ntp1174
Rp1175
(dp1176
g20
I78210
sg21
g22
sg23
I233
sg24
I1
sg25
I300
sg26
g27
sbag0
(g16
g2
Ntp1177
Rp1178
(dp1179
g20
I78211
sg21
g31
sg23
F0.7092826746356652
sg24
I-1
sg25
I1
sg26
g32
sbag0
(g16
g2
Ntp1180
Rp1181
(dp1182
g20
I78212
sg21
g36
sg23
F-0.06949100185611064
sg24
I-1
sg25
I1
sg26
g32
sbag0
(g16
g2
Ntp1183
Rp1184
(dp1185
g20
I76599
sg21
g40
sg23
F0.5960584066569988
sg24
I-1
sg25
I1
sg26
g32
sbag0
(g16
g2
Ntp1186
Rp1187
(dp1188
g20
I76542
sg21
g44
sg23
F0.32200518941673556
sg24
I-1
sg25
I1
sg26
g32
sbag0
(g16
g2
Ntp1189
Rp1190
(dp1191
g20
I78215
sg21
g48
sg23
(lp1192
F61.85556010424398
aF87.81855634627108
asg24
I0
sg25
I100
sg26
g50
sbag0
(g16
g2
Ntp1193
Rp1194
(dp1195
g20
I78216
sg21
g54
sg23
(lp1196
F21.27732786443895
aF42.00899665871131
aF71.51197260845683
asg24
I0
sg25
I100
sg26
g56
sbag0
(g16
g2
Ntp1197
Rp1198
(dp1199
g20
I78217
sg21
g60
sg23
(lp1200
F49.1098017265361
aF75.17098814893139
asg24
I0
sg25
I100
sg26
g50
sbag0
(g16
g2
Ntp1201
Rp1202
(dp1203
g20
I78218
sg21
g65
sg23
(lp1204
F13.24267423817685
aF21.654357212880015
asg24
I1
sg25
I100
sg26
g65
sbag0
(g16
g2
Ntp1205
Rp1206
(dp1207
g20
I78219
sg21
g70
sg23
F0.40353343339809217
sg24
F0.01
sg25
F0.99
sg26
g32
sbag0
(g16
g2
Ntp1208
Rp1209
(dp1210
g20
I78220
sg21
g74
sg23
I220
sg24
I1
sg25
I300
sg26
g27
sbasg75
(dp1211
g22
g1175
sg31
g1178
sg36
g1181
sg40
g1184
sg44
g1187
sg48
g1190
sg54
g1194
sg60
g1198
sg65
g1202
sg70
g1206
sg74
g1209
ssg77
Nsbag0
(g9
g2
Ntp1212
Rp1213
(dp1214
g13
I23878
sg14
(lp1215
g0
(g16
g2
Ntp1216
Rp1217
(dp1218
g20
I77100
sg21
g22
sg23
I241
sg24
I1
sg25
I300
sg26
g27
sbag0
(g16
g2
Ntp1219
Rp1220
(dp1221
g20
I77102
sg21
g31
sg23
F0.7866475913897588
sg24
I-1
sg25
I1
sg26
g32
sbag0
(g16
g2
Ntp1222
Rp1223
(dp1224
g20
I77104
sg21
g36
sg23
F-0.09956548992244454
sg24
I-1
sg25
I1
sg26
g32
sbag0
(g16
g2
Ntp1225
Rp1226
(dp1227
g20
I78444
sg21
g40
sg23
F-0.6289359053474171
sg24
I-1
sg25
I1
sg26
g32
sbag0
(g16
g2
Ntp1228
Rp1229
(dp1230
g20
I78445
sg21
g44
sg23
F0.32600049998079084
sg24
I-1
sg25
I1
sg26
g32
sbag0
(g16
g2
Ntp1231
Rp1232
(dp1233
g20
I78446
sg21
g48
sg23
(lp1234
F79.40146326379173
aF93.80213994869719
asg24
I0
sg25
I100
sg26
g50
sbag0
(g16
g2
Ntp1235
Rp1236
(dp1237
g20
I78447
sg21
g54
sg23
(lp1238
F23.225883968238993
aF43.133750153413494
aF68.40227451044142
asg24
I0
sg25
I100
sg26
g56
sbag0
(g16
g2
Ntp1239
Rp1240
(dp1241
g20
I77114
sg21
g60
sg23
(lp1242
F61.53718980435317
aF78.38480440415788
asg24
I0
sg25
I100
sg26
g50
sbag0
(g16
g2
Ntp1243
Rp1244
(dp1245
g20
I77116
sg21
g65
sg23
(lp1246
F13.061904469053648
aF21.618608897561465
asg24
I1
sg25
I100
sg26
g65
sbag0
(g16
g2
Ntp1247
Rp1248
(dp1249
g20
I76788
sg21
g70
sg23
F0.6900364716916536
sg24
F0.01
sg25
F0.99
sg26
g32
sbag0
(g16
g2
Ntp1250
Rp1251
(dp1252
g20
I76790
sg21
g74
sg23
I219
sg24
I1
sg25
I300
sg26
g27
sbasg75
(dp1253
g22
g1217
sg31
g1220
sg36
g1223
sg40
g1226
sg44
g1229
sg48
g1232
sg54
g1236
sg60
g1240
sg65
g1244
sg70
g1248
sg74
g1251
ssg77
Nsbag0
(g9
g2
Ntp1254
Rp1255
(dp1256
g13
I23880
sg14
(lp1257
g0
(g16
g2
Ntp1258
Rp1259
(dp1260
g20
I77968
sg21
g22
sg23
I250
sg24
I1
sg25
I300
sg26
g27
sbag0
(g16
g2
Ntp1261
Rp1262
(dp1263
g20
I77969
sg21
g31
sg23
F0.8039157676808156
sg24
I-1
sg25
I1
sg26
g32
sbag0
(g16
g2
Ntp1264
Rp1265
(dp1266
g20
I77970
sg21
g36
sg23
F-0.056418464495022295
sg24
I-1
sg25
I1
sg26
g32
sbag0
(g16
g2
Ntp1267
Rp1268
(dp1269
g20
I77971
sg21
g40
sg23
F-0.04674548348124842
sg24
I-1
sg25
I1
sg26
g32
sbag0
(g16
g2
Ntp1270
Rp1271
(dp1272
g20
I77877
sg21
g44
sg23
F0.41841454627259006
sg24
I-1
sg25
I1
sg26
g32
sbag0
(g16
g2
Ntp1273
Rp1274
(dp1275
g20
I77879
sg21
g48
sg23
(lp1276
F62.7648074639862
aF88.82075915675863
asg24
I0
sg25
I100
sg26
g50
sbag0
(g16
g2
Ntp1277
Rp1278
(dp1279
g20
I75869
sg21
g54
sg23
(lp1280
F20.471903216756807
aF45.319395177914025
aF74.67862559429574
asg24
I0
sg25
I100
sg26
g56
sbag0
(g16
g2
Ntp1281
Rp1282
(dp1283
g20
I76652
sg21
g60
sg23
(lp1284
F66.33458059672587
aF82.6382174052772
asg24
I0
sg25
I100
sg26
g50
sbag0
(g16
g2
Ntp1285
Rp1286
(dp1287
g20
I76939
sg21
g65
sg23
(lp1288
F12.880514910924202
aF21.48488007351225
asg24
I1
sg25
I100
sg26
g65
sbag0
(g16
g2
Ntp1289
Rp1290
(dp1291
g20
I77887
sg21
g70
sg23
F0.45519268399042334
sg24
F0.01
sg25
F0.99
sg26
g32
sbag0
(g16
g2
Ntp1292
Rp1293
(dp1294
g20
I77120
sg21
g74
sg23
I218
sg24
I1
sg25
I300
sg26
g27
sbasg75
(dp1295
g22
g1259
sg31
g1262
sg36
g1265
sg40
g1268
sg44
g1271
sg48
g1274
sg54
g1278
sg60
g1282
sg65
g1286
sg70
g1290
sg74
g1293
ssg77
Nsbag0
(g9
g2
Ntp1296
Rp1297
(dp1298
g13
I23881
sg14
(lp1299
g0
(g16
g2
Ntp1300
Rp1301
(dp1302
g20
I77100
sg21
g22
sg23
I241
sg24
I1
sg25
I300
sg26
g27
sbag0
(g16
g2
Ntp1303
Rp1304
(dp1305
g20
I77102
sg21
g31
sg23
F0.7866475913897588
sg24
I-1
sg25
I1
sg26
g32
sbag0
(g16
g2
Ntp1306
Rp1307
(dp1308
g20
I77104
sg21
g36
sg23
F-0.09956548992244454
sg24
I-1
sg25
I1
sg26
g32
sbag0
(g16
g2
Ntp1309
Rp1310
(dp1311
g20
I76599
sg21
g40
sg23
F0.5960584066569988
sg24
I-1
sg25
I1
sg26
g32
sbag0
(g16
g2
Ntp1312
Rp1313
(dp1314
g20
I76542
sg21
g44
sg23
F0.32200518941673556
sg24
I-1
sg25
I1
sg26
g32
sbag0
(g16
g2
Ntp1315
Rp1316
(dp1317
g20
I77973
sg21
g48
sg23
(lp1318
F48.888234260561525
aF82.75288276481385
asg24
I0
sg25
I100
sg26
g50
sbag0
(g16
g2
Ntp1319
Rp1320
(dp1321
g20
I77974
sg21
g54
sg23
(lp1322
F22.215357512494844
aF41.867267942124606
aF71.58544306915779
asg24
I0
sg25
I100
sg26
g56
sbag0
(g16
g2
Ntp1323
Rp1324
(dp1325
g20
I77997
sg21
g60
sg23
(lp1326
F60.28420329699296
aF74.44662444080033
asg24
I0
sg25
I100
sg26
g50
sbag0
(g16
g2
Ntp1327
Rp1328
(dp1329
g20
I75873
sg21
g65
sg23
(lp1330
F13.885568952922215
aF22.080806891644205
asg24
I1
sg25
I100
sg26
g65
sbag0
(g16
g2
Ntp1331
Rp1332
(dp1333
g20
I77130
sg21
g70
sg23
F0.8212352354427384
sg24
F0.01
sg25
F0.99
sg26
g32
sbag0
(g16
g2
Ntp1334
Rp1335
(dp1336
g20
I75184
sg21
g74
sg23
I221
sg24
I1
sg25
I300
sg26
g27
sbasg75
(dp1337
g22
g1301
sg31
g1304
sg36
g1307
sg40
g1310
sg44
g1313
sg48
g1316
sg54
g1320
sg60
g1324
sg65
g1328
sg70
g1332
sg74
g1335
ssg77
Nsbag0
(g9
g2
Ntp1338
Rp1339
(dp1340
g13
I23884
sg14
(lp1341
g0
(g16
g2
Ntp1342
Rp1343
(dp1344
g20
I76638
sg21
g22
sg23
I250
sg24
I1
sg25
I300
sg26
g27
sbag0
(g16
g2
Ntp1345
Rp1346
(dp1347
g20
I77102
sg21
g31
sg23
F0.7866475913897588
sg24
I-1
sg25
I1
sg26
g32
sbag0
(g16
g2
Ntp1348
Rp1349
(dp1350
g20
I77104
sg21
g36
sg23
F-0.09956548992244454
sg24
I-1
sg25
I1
sg26
g32
sbag0
(g16
g2
Ntp1351
Rp1352
(dp1353
g20
I76599
sg21
g40
sg23
F0.0010796654144272777
sg24
I-1
sg25
I1
sg26
g32
sbag0
(g16
g2
Ntp1354
Rp1355
(dp1356
g20
I76542
sg21
g44
sg23
F-0.3296669471269267
sg24
I-1
sg25
I1
sg26
g32
sbag0
(g16
g2
Ntp1357
Rp1358
(dp1359
g20
I76543
sg21
g48
sg23
(lp1360
F62.58126505149187
aF88.69562358870515
asg24
I0
sg25
I100
sg26
g50
sbag0
(g16
g2
Ntp1361
Rp1362
(dp1363
g20
I76489
sg21
g54
sg23
(lp1364
F21.25149590942703
aF41.985511108804275
aF71.50029372646878
asg24
I0
sg25
I100
sg26
g56
sbag0
(g16
g2
Ntp1365
Rp1366
(dp1367
g20
I76607
sg21
g60
sg23
(lp1368
F19.42302552161085
aF92.45453336410706
asg24
I0
sg25
I100
sg26
g50
sbag0
(g16
g2
Ntp1369
Rp1370
(dp1371
g20
I77998
sg21
g65
sg23
(lp1372
F13.629581796571802
aF21.929700084061054
asg24
I1
sg25
I100
sg26
g65
sbag0
(g16
g2
Ntp1373
Rp1374
(dp1375
g20
I77999
sg21
g70
sg23
F0.7886368513050686
sg24
F0.01
sg25
F0.99
sg26
g32
sbag0
(g16
g2
Ntp1376
Rp1377
(dp1378
g20
I72819
sg21
g74
sg23
I219
sg24
I1
sg25
I300
sg26
g27
sbasg75
(dp1379
g22
g1343
sg31
g1346
sg36
g1349
sg40
g1352
sg44
g1355
sg48
g1358
sg54
g1362
sg60
g1366
sg65
g1370
sg70
g1374
sg74
g1377
ssg77
Nsbag0
(g9
g2
Ntp1380
Rp1381
(dp1382
g13
I23886
sg14
(lp1383
g0
(g16
g2
Ntp1384
Rp1385
(dp1386
g20
I78332
sg21
g22
sg23
I232
sg24
I1
sg25
I300
sg26
g27
sbag0
(g16
g2
Ntp1387
Rp1388
(dp1389
g20
I77969
sg21
g31
sg23
F0.8039157676808156
sg24
I-1
sg25
I1
sg26
g32
sbag0
(g16
g2
Ntp1390
Rp1391
(dp1392
g20
I77970
sg21
g36
sg23
F-0.056418464495022295
sg24
I-1
sg25
I1
sg26
g32
sbag0
(g16
g2
Ntp1393
Rp1394
(dp1395
g20
I77971
sg21
g40
sg23
F-0.04674548348124842
sg24
I-1
sg25
I1
sg26
g32
sbag0
(g16
g2
Ntp1396
Rp1397
(dp1398
g20
I78340
sg21
g44
sg23
F0.44316944390084717
sg24
I-1
sg25
I1
sg26
g32
sbag0
(g16
g2
Ntp1399
Rp1400
(dp1401
g20
I78342
sg21
g48
sg23
(lp1402
F15.761037137263612
aF98.83958389991304
asg24
I0
sg25
I100
sg26
g50
sbag0
(g16
g2
Ntp1403
Rp1404
(dp1405
g20
I75869
sg21
g54
sg23
(lp1406
F24.084625997613568
aF74.26215066892487
aF80.20400725785503
asg24
I0
sg25
I100
sg26
g56
sbag0
(g16
g2
Ntp1407
Rp1408
(dp1409
g20
I76652
sg21
g60
sg23
(lp1410
F66.33458059672587
aF82.6382174052772
asg24
I0
sg25
I100
sg26
g50
sbag0
(g16
g2
Ntp1411
Rp1412
(dp1413
g20
I78348
sg21
g65
sg23
(lp1414
F12.891969729232532
aF21.493325098671733
asg24
I1
sg25
I100
sg26
g65
sbag0
(g16
g2
Ntp1415
Rp1416
(dp1417
g20
I78350
sg21
g70
sg23
F0.1710470698771244
sg24
F0.01
sg25
F0.99
sg26
g32
sbag0
(g16
g2
Ntp1418
Rp1419
(dp1420
g20
I78352
sg21
g74
sg23
I226
sg24
I1
sg25
I300
sg26
g27
sbasg75
(dp1421
g22
g1385
sg31
g1388
sg36
g1391
sg40
g1394
sg44
g1397
sg48
g1400
sg54
g1404
sg60
g1408
sg65
g1412
sg70
g1416
sg74
g1419
ssg77
Nsbag0
(g9
g2
Ntp1422
Rp1423
(dp1424
g13
I23888
sg14
(lp1425
g0
(g16
g2
Ntp1426
Rp1427
(dp1428
g20
I78486
sg21
g22
sg23
I252
sg24
I1
sg25
I300
sg26
g27
sbag0
(g16
g2
Ntp1429
Rp1430
(dp1431
g20
I78488
sg21
g31
sg23
F0.8165479269685336
sg24
I-1
sg25
I1
sg26
g32
sbag0
(g16
g2
Ntp1432
Rp1433
(dp1434
g20
I78490
sg21
g36
sg23
F-0.054454533627106456
sg24
I-1
sg25
I1
sg26
g32
sbag0
(g16
g2
Ntp1435
Rp1436
(dp1437
g20
I78492
sg21
g40
sg23
F-0.1773539535229589
sg24
I-1
sg25
I1
sg26
g32
sbag0
(g16
g2
Ntp1438
Rp1439
(dp1440
g20
I78494
sg21
g44
sg23
F-0.4952226371767737
sg24
I-1
sg25
I1
sg26
g32
sbag0
(g16
g2
Ntp1441
Rp1442
(dp1443
g20
I78496
sg21
g48
sg23
(lp1444
F67.90579402068948
aF92.52816706845226
asg24
I0
sg25
I100
sg26
g50
sbag0
(g16
g2
Ntp1445
Rp1446
(dp1447
g20
I78498
sg21
g54
sg23
(lp1448
F21.617370170270192
aF41.952629392492355
aF71.54388174732118
asg24
I0
sg25
I100
sg26
g56
sbag0
(g16
g2
Ntp1449
Rp1450
(dp1451
g20
I78500
sg21
g60
sg23
(lp1452
F61.06313838551296
aF76.53682993074548
asg24
I0
sg25
I100
sg26
g50
sbag0
(g16
g2
Ntp1453
Rp1454
(dp1455
g20
I78502
sg21
g65
sg23
(lp1456
F13.155819538184133
aF21.579774328183678
asg24
I1
sg25
I100
sg26
g65
sbag0
(g16
g2
Ntp1457
Rp1458
(dp1459
g20
I78504
sg21
g70
sg23
F0.6557773815837276
sg24
F0.01
sg25
F0.99
sg26
g32
sbag0
(g16
g2
Ntp1460
Rp1461
(dp1462
g20
I78506
sg21
g74
sg23
I219
sg24
I1
sg25
I300
sg26
g27
sbasg75
(dp1463
g22
g1427
sg31
g1430
sg36
g1433
sg40
g1436
sg44
g1439
sg48
g1442
sg54
g1446
sg60
g1450
sg65
g1454
sg70
g1458
sg74
g1461
ssg77
Nsbag0
(g9
g2
Ntp1464
Rp1465
(dp1466
g13
I23891
sg14
(lp1467
g0
(g16
g2
Ntp1468
Rp1469
(dp1470
g20
I78518
sg21
g22
sg23
I241
sg24
I1
sg25
I300
sg26
g27
sbag0
(g16
g2
Ntp1471
Rp1472
(dp1473
g20
I78520
sg21
g31
sg23
F0.7866475913897589
sg24
I-1
sg25
I1
sg26
g32
sbag0
(g16
g2
Ntp1474
Rp1475
(dp1476
g20
I78522
sg21
g36
sg23
F-0.09956548992244454
sg24
I-1
sg25
I1
sg26
g32
sbag0
(g16
g2
Ntp1477
Rp1478
(dp1479
g20
I78524
sg21
g40
sg23
F0.5960584066569988
sg24
I-1
sg25
I1
sg26
g32
sbag0
(g16
g2
Ntp1480
Rp1481
(dp1482
g20
I78526
sg21
g44
sg23
F0.32200518941673556
sg24
I-1
sg25
I1
sg26
g32
sbag0
(g16
g2
Ntp1483
Rp1484
(dp1485
g20
I78528
sg21
g48
sg23
(lp1486
F49.613570465361285
aF83.03623466748226
asg24
I0
sg25
I100
sg26
g50
sbag0
(g16
g2
Ntp1487
Rp1488
(dp1489
g20
I78530
sg21
g54
sg23
(lp1490
F22.30715404219717
aF41.853398226632365
aF71.59263296272029
asg24
I0
sg25
I100
sg26
g56
sbag0
(g16
g2
Ntp1491
Rp1492
(dp1493
g20
I78532
sg21
g60
sg23
(lp1494
F58.51084150477443
aF74.56157994115263
asg24
I0
sg25
I100
sg26
g50
sbag0
(g16
g2
Ntp1495
Rp1496
(dp1497
g20
I78534
sg21
g65
sg23
(lp1498
F13.902815768602355
aF22.092247177025016
asg24
I1
sg25
I100
sg26
g65
sbag0
(g16
g2
Ntp1499
Rp1500
(dp1501
g20
I78536
sg21
g70
sg23
F0.789008936025315
sg24
F0.01
sg25
F0.99
sg26
g32
sbag0
(g16
g2
Ntp1502
Rp1503
(dp1504
g20
I78538
sg21
g74
sg23
I220
sg24
I1
sg25
I300
sg26
g27
sbasg75
(dp1505
g22
g1469
sg31
g1472
sg36
g1475
sg40
g1478
sg44
g1481
sg48
g1484
sg54
g1488
sg60
g1492
sg65
g1496
sg70
g1500
sg74
g1503
ssg77
Nsbag0
(g9
g2
Ntp1506
Rp1507
(dp1508
g13
I23893
sg14
(lp1509
g0
(g16
g2
Ntp1510
Rp1511
(dp1512
g20
I77968
sg21
g22
sg23
I250
sg24
I1
sg25
I300
sg26
g27
sbag0
(g16
g2
Ntp1513
Rp1514
(dp1515
g20
I77969
sg21
g31
sg23
F0.8039157676808156
sg24
I-1
sg25
I1
sg26
g32
sbag0
(g16
g2
Ntp1516
Rp1517
(dp1518
g20
I77970
sg21
g36
sg23
F-0.056418464495022295
sg24
I-1
sg25
I1
sg26
g32
sbag0
(g16
g2
Ntp1519
Rp1520
(dp1521
g20
I77971
sg21
g40
sg23
F-0.04674548348124842
sg24
I-1
sg25
I1
sg26
g32
sbag0
(g16
g2
Ntp1522
Rp1523
(dp1524
g20
I77877
sg21
g44
sg23
F0.41841454627259006
sg24
I-1
sg25
I1
sg26
g32
sbag0
(g16
g2
Ntp1525
Rp1526
(dp1527
g20
I77879
sg21
g48
sg23
(lp1528
F62.7648074639862
aF88.82075915675863
asg24
I0
sg25
I100
sg26
g50
sbag0
(g16
g2
Ntp1529
Rp1530
(dp1531
g20
I75869
sg21
g54
sg23
(lp1532
F20.471903216756807
aF45.319395177914025
aF74.67862559429574
asg24
I0
sg25
I100
sg26
g56
sbag0
(g16
g2
Ntp1533
Rp1534
(dp1535
g20
I76652
sg21
g60
sg23
(lp1536
F66.33458059672587
aF82.6382174052772
asg24
I0
sg25
I100
sg26
g50
sbag0
(g16
g2
Ntp1537
Rp1538
(dp1539
g20
I76939
sg21
g65
sg23
(lp1540
F12.880514910924202
aF21.48488007351225
asg24
I1
sg25
I100
sg26
g65
sbag0
(g16
g2
Ntp1541
Rp1542
(dp1543
g20
I77887
sg21
g70
sg23
F0.45519268399042334
sg24
F0.01
sg25
F0.99
sg26
g32
sbag0
(g16
g2
Ntp1544
Rp1545
(dp1546
g20
I77120
sg21
g74
sg23
I218
sg24
I1
sg25
I300
sg26
g27
sbasg75
(dp1547
g22
g1511
sg31
g1514
sg36
g1517
sg40
g1520
sg44
g1523
sg48
g1526
sg54
g1530
sg60
g1534
sg65
g1538
sg70
g1542
sg74
g1545
ssg77
Nsbag0
(g9
g2
Ntp1548
Rp1549
(dp1550
g13
I23895
sg14
(lp1551
g0
(g16
g2
Ntp1552
Rp1553
(dp1554
g20
I78540
sg21
g22
sg23
I240
sg24
I1
sg25
I300
sg26
g27
sbag0
(g16
g2
Ntp1555
Rp1556
(dp1557
g20
I78541
sg21
g31
sg23
F0.7449714458599296
sg24
I-1
sg25
I1
sg26
g32
sbag0
(g16
g2
Ntp1558
Rp1559
(dp1560
g20
I78542
sg21
g36
sg23
F-0.6167044708471747
sg24
I-1
sg25
I1
sg26
g32
sbag0
(g16
g2
Ntp1561
Rp1562
(dp1563
g20
I78543
sg21
g40
sg23
F0.5854584055192125
sg24
I-1
sg25
I1
sg26
g32
sbag0
(g16
g2
Ntp1564
Rp1565
(dp1566
g20
I78544
sg21
g44
sg23
F0.27312926921084646
sg24
I-1
sg25
I1
sg26
g32
sbag0
(g16
g2
Ntp1567
Rp1568
(dp1569
g20
I78545
sg21
g48
sg23
(lp1570
F75.62239410340914
aF92.51338461619129
asg24
I0
sg25
I100
sg26
g50
sbag0
(g16
g2
Ntp1571
Rp1572
(dp1573
g20
I78546
sg21
g54
sg23
(lp1574
F22.145308386280874
aF42.51001591259434
aF70.12676364648625
asg24
I0
sg25
I100
sg26
g56
sbag0
(g16
g2
Ntp1575
Rp1576
(dp1577
g20
I78547
sg21
g60
sg23
(lp1578
F55.392127800518736
aF76.54106780613749
asg24
I0
sg25
I100
sg26
g50
sbag0
(g16
g2
Ntp1579
Rp1580
(dp1581
g20
I78548
sg21
g65
sg23
(lp1582
F13.174621692169673
aF21.64089941025796
asg24
I1
sg25
I100
sg26
g65
sbag0
(g16
g2
Ntp1583
Rp1584
(dp1585
g20
I78549
sg21
g70
sg23
F0.5033160017101969
sg24
F0.01
sg25
F0.99
sg26
g32
sbag0
(g16
g2
Ntp1586
Rp1587
(dp1588
g20
I78550
sg21
g74
sg23
I219
sg24
I1
sg25
I300
sg26
g27
sbasg75
(dp1589
g22
g1553
sg31
g1556
sg36
g1559
sg40
g1562
sg44
g1565
sg48
g1568
sg54
g1572
sg60
g1576
sg65
g1580
sg70
g1584
sg74
g1587
ssg77
Nsbag0
(g9
g2
Ntp1590
Rp1591
(dp1592
g13
I23896
sg14
(lp1593
g0
(g16
g2
Ntp1594
Rp1595
(dp1596
g20
I78540
sg21
g22
sg23
I240
sg24
I1
sg25
I300
sg26
g27
sbag0
(g16
g2
Ntp1597
Rp1598
(dp1599
g20
I78541
sg21
g31
sg23
F0.7449714458599296
sg24
I-1
sg25
I1
sg26
g32
sbag0
(g16
g2
Ntp1600
Rp1601
(dp1602
g20
I78542
sg21
g36
sg23
F-0.6167044708471747
sg24
I-1
sg25
I1
sg26
g32
sbag0
(g16
g2
Ntp1603
Rp1604
(dp1605
g20
I78543
sg21
g40
sg23
F0.5854584055192125
sg24
I-1
sg25
I1
sg26
g32
sbag0
(g16
g2
Ntp1606
Rp1607
(dp1608
g20
I78544
sg21
g44
sg23
F0.27312926921084646
sg24
I-1
sg25
I1
sg26
g32
sbag0
(g16
g2
Ntp1609
Rp1610
(dp1611
g20
I78545
sg21
g48
sg23
(lp1612
F75.62239410340914
aF92.51338461619129
asg24
I0
sg25
I100
sg26
g50
sbag0
(g16
g2
Ntp1613
Rp1614
(dp1615
g20
I78546
sg21
g54
sg23
(lp1616
F22.145308386280874
aF42.51001591259434
aF70.12676364648625
asg24
I0
sg25
I100
sg26
g56
sbag0
(g16
g2
Ntp1617
Rp1618
(dp1619
g20
I78547
sg21
g60
sg23
(lp1620
F55.392127800518736
aF76.54106780613749
asg24
I0
sg25
I100
sg26
g50
sbag0
(g16
g2
Ntp1621
Rp1622
(dp1623
g20
I78548
sg21
g65
sg23
(lp1624
F13.174621692169673
aF21.64089941025796
asg24
I1
sg25
I100
sg26
g65
sbag0
(g16
g2
Ntp1625
Rp1626
(dp1627
g20
I78549
sg21
g70
sg23
F0.5033160017101969
sg24
F0.01
sg25
F0.99
sg26
g32
sbag0
(g16
g2
Ntp1628
Rp1629
(dp1630
g20
I78550
sg21
g74
sg23
I219
sg24
I1
sg25
I300
sg26
g27
sbasg75
(dp1631
g22
g1595
sg31
g1598
sg36
g1601
sg40
g1604
sg44
g1607
sg48
g1610
sg54
g1614
sg60
g1618
sg65
g1622
sg70
g1626
sg74
g1629
ssg77
Nsbag0
(g9
g2
Ntp1632
Rp1633
(dp1634
g13
I23898
sg14
(lp1635
g0
(g16
g2
Ntp1636
Rp1637
(dp1638
g20
I77100
sg21
g22
sg23
I241
sg24
I1
sg25
I300
sg26
g27
sbag0
(g16
g2
Ntp1639
Rp1640
(dp1641
g20
I78135
sg21
g31
sg23
F0.7866475913897588
sg24
I-1
sg25
I1
sg26
g32
sbag0
(g16
g2
Ntp1642
Rp1643
(dp1644
g20
I78137
sg21
g36
sg23
F-0.09956548992244454
sg24
I-1
sg25
I1
sg26
g32
sbag0
(g16
g2
Ntp1645
Rp1646
(dp1647
g20
I78139
sg21
g40
sg23
F-0.45891297876524734
sg24
I-1
sg25
I1
sg26
g32
sbag0
(g16
g2
Ntp1648
Rp1649
(dp1650
g20
I76542
sg21
g44
sg23
F0.32200518941673556
sg24
I-1
sg25
I1
sg26
g32
sbag0
(g16
g2
Ntp1651
Rp1652
(dp1653
g20
I77110
sg21
g48
sg23
(lp1654
F64.18864034847176
aF88.80055758825374
asg24
I0
sg25
I100
sg26
g50
sbag0
(g16
g2
Ntp1655
Rp1656
(dp1657
g20
I77112
sg21
g54
sg23
(lp1658
F21.762051171267373
aF42.46963393212779
aF71.74774133178855
asg24
I0
sg25
I100
sg26
g56
sbag0
(g16
g2
Ntp1659
Rp1660
(dp1661
g20
I77114
sg21
g60
sg23
(lp1662
F61.53718980435317
aF78.38480440415788
asg24
I0
sg25
I100
sg26
g50
sbag0
(g16
g2
Ntp1663
Rp1664
(dp1665
g20
I78149
sg21
g65
sg23
(lp1666
F12.80056082552662
aF21.47195633432706
asg24
I1
sg25
I100
sg26
g65
sbag0
(g16
g2
Ntp1667
Rp1668
(dp1669
g20
I77118
sg21
g70
sg23
F0.5122222182355997
sg24
F0.01
sg25
F0.99
sg26
g32
sbag0
(g16
g2
Ntp1670
Rp1671
(dp1672
g20
I78153
sg21
g74
sg23
I217
sg24
I1
sg25
I300
sg26
g27
sbasg75
(dp1673
g22
g1637
sg31
g1640
sg36
g1643
sg40
g1646
sg44
g1649
sg48
g1652
sg54
g1656
sg60
g1660
sg65
g1664
sg70
g1668
sg74
g1671
ssg77
Nsbag0
(g9
g2
Ntp1674
Rp1675
(dp1676
g13
I23901
sg14
(lp1677
g0
(g16
g2
Ntp1678
Rp1679
(dp1680
g20
I76638
sg21
g22
sg23
I250
sg24
I1
sg25
I300
sg26
g27
sbag0
(g16
g2
Ntp1681
Rp1682
(dp1683
g20
I76595
sg21
g31
sg23
F0.8039157676808157
sg24
I-1
sg25
I1
sg26
g32
sbag0
(g16
g2
Ntp1684
Rp1685
(dp1686
g20
I76333
sg21
g36
sg23
F-0.0564184644950223
sg24
I-1
sg25
I1
sg26
g32
sbag0
(g16
g2
Ntp1687
Rp1688
(dp1689
g20
I76599
sg21
g40
sg23
F-0.5671181715040772
sg24
I-1
sg25
I1
sg26
g32
sbag0
(g16
g2
Ntp1690
Rp1691
(dp1692
g20
I76487
sg21
g44
sg23
F-0.4738796512028194
sg24
I-1
sg25
I1
sg26
g32
sbag0
(g16
g2
Ntp1693
Rp1694
(dp1695
g20
I76648
sg21
g48
sg23
(lp1696
F69.11214601237968
aF93.14824839527718
asg24
I0
sg25
I100
sg26
g50
sbag0
(g16
g2
Ntp1697
Rp1698
(dp1699
g20
I78530
sg21
g54
sg23
(lp1700
F22.30715404219717
aF41.853398226632365
aF71.59263296272029
asg24
I0
sg25
I100
sg26
g56
sbag0
(g16
g2
Ntp1701
Rp1702
(dp1703
g20
I78532
sg21
g60
sg23
(lp1704
F58.51084150477443
aF74.56157994115263
asg24
I0
sg25
I100
sg26
g50
sbag0
(g16
g2
Ntp1705
Rp1706
(dp1707
g20
I76786
sg21
g65
sg23
(lp1708
F13.157222434175726
aF21.580810521826344
asg24
I1
sg25
I100
sg26
g65
sbag0
(g16
g2
Ntp1709
Rp1710
(dp1711
g20
I77250
sg21
g70
sg23
F0.6531059476829189
sg24
F0.01
sg25
F0.99
sg26
g32
sbag0
(g16
g2
Ntp1712
Rp1713
(dp1714
g20
I72819
sg21
g74
sg23
I219
sg24
I1
sg25
I300
sg26
g27
sbasg75
(dp1715
g22
g1679
sg31
g1682
sg36
g1685
sg40
g1688
sg44
g1691
sg48
g1694
sg54
g1698
sg60
g1702
sg65
g1706
sg70
g1710
sg74
g1713
ssg77
Nsbag0
(g9
g2
Ntp1716
Rp1717
(dp1718
g13
I23902
sg14
(lp1719
g0
(g16
g2
Ntp1720
Rp1721
(dp1722
g20
I78518
sg21
g22
sg23
I241
sg24
I1
sg25
I300
sg26
g27
sbag0
(g16
g2
Ntp1723
Rp1724
(dp1725
g20
I78520
sg21
g31
sg23
F0.7866475913897589
sg24
I-1
sg25
I1
sg26
g32
sbag0
(g16
g2
Ntp1726
Rp1727
(dp1728
g20
I78522
sg21
g36
sg23
F-0.09956548992244454
sg24
I-1
sg25
I1
sg26
g32
sbag0
(g16
g2
Ntp1729
Rp1730
(dp1731
g20
I78524
sg21
g40
sg23
F0.5960584066569988
sg24
I-1
sg25
I1
sg26
g32
sbag0
(g16
g2
Ntp1732
Rp1733
(dp1734
g20
I78526
sg21
g44
sg23
F0.32200518941673556
sg24
I-1
sg25
I1
sg26
g32
sbag0
(g16
g2
Ntp1735
Rp1736
(dp1737
g20
I78528
sg21
g48
sg23
(lp1738
F49.613570465361285
aF83.03623466748226
asg24
I0
sg25
I100
sg26
g50
sbag0
(g16
g2
Ntp1739
Rp1740
(dp1741
g20
I76489
sg21
g54
sg23
(lp1742
F21.25149590942703
aF41.985511108804275
aF71.50029372646878
asg24
I0
sg25
I100
sg26
g56
sbag0
(g16
g2
Ntp1743
Rp1744
(dp1745
g20
I76490
sg21
g60
sg23
(lp1746
F61.28023173128623
aF77.11938130101181
asg24
I0
sg25
I100
sg26
g50
sbag0
(g16
g2
Ntp1747
Rp1748
(dp1749
g20
I78534
sg21
g65
sg23
(lp1750
F13.902815768602355
aF22.092247177025016
asg24
I1
sg25
I100
sg26
g65
sbag0
(g16
g2
Ntp1751
Rp1752
(dp1753
g20
I78536
sg21
g70
sg23
F0.789008936025315
sg24
F0.01
sg25
F0.99
sg26
g32
sbag0
(g16
g2
Ntp1754
Rp1755
(dp1756
g20
I78538
sg21
g74
sg23
I220
sg24
I1
sg25
I300
sg26
g27
sbasg75
(dp1757
g22
g1721
sg31
g1724
sg36
g1727
sg40
g1730
sg44
g1733
sg48
g1736
sg54
g1740
sg60
g1744
sg65
g1748
sg70
g1752
sg74
g1755
ssg77
Nsbag0
(g9
g2
Ntp1758
Rp1759
(dp1760
g13
I23904
sg14
(lp1761
g0
(g16
g2
Ntp1762
Rp1763
(dp1764
g20
I78332
sg21
g22
sg23
I232
sg24
I1
sg25
I300
sg26
g27
sbag0
(g16
g2
Ntp1765
Rp1766
(dp1767
g20
I78334
sg21
g31
sg23
F0.6541570966291183
sg24
I-1
sg25
I1
sg26
g32
sbag0
(g16
g2
Ntp1768
Rp1769
(dp1770
g20
I78443
sg21
g36
sg23
F0.626263434665021
sg24
I-1
sg25
I1
sg26
g32
sbag0
(g16
g2
Ntp1771
Rp1772
(dp1773
g20
I76599
sg21
g40
sg23
F0.5960584066569988
sg24
I-1
sg25
I1
sg26
g32
sbag0
(g16
g2
Ntp1774
Rp1775
(dp1776
g20
I76542
sg21
g44
sg23
F0.32200518941673556
sg24
I-1
sg25
I1
sg26
g32
sbag0
(g16
g2
Ntp1777
Rp1778
(dp1779
g20
I77110
sg21
g48
sg23
(lp1780
F64.18864034847176
aF88.80055758825374
asg24
I0
sg25
I100
sg26
g50
sbag0
(g16
g2
Ntp1781
Rp1782
(dp1783
g20
I77112
sg21
g54
sg23
(lp1784
F21.762051171267373
aF42.46963393212779
aF71.74774133178855
asg24
I0
sg25
I100
sg26
g56
sbag0
(g16
g2
Ntp1785
Rp1786
(dp1787
g20
I78448
sg21
g60
sg23
(lp1788
F69.66979580794657
aF87.67065631555529
asg24
I0
sg25
I100
sg26
g50
sbag0
(g16
g2
Ntp1789
Rp1790
(dp1791
g20
I78449
sg21
g65
sg23
(lp1792
F13.419791053696411
aF21.805119592990227
asg24
I1
sg25
I100
sg26
g65
sbag0
(g16
g2
Ntp1793
Rp1794
(dp1795
g20
I78450
sg21
g70
sg23
F0.6149556899776418
sg24
F0.01
sg25
F0.99
sg26
g32
sbag0
(g16
g2
Ntp1796
Rp1797
(dp1798
g20
I78451
sg21
g74
sg23
I218
sg24
I1
sg25
I300
sg26
g27
sbasg75
(dp1799
g22
g1763
sg31
g1766
sg36
g1769
sg40
g1772
sg44
g1775
sg48
g1778
sg54
g1782
sg60
g1786
sg65
g1790
sg70
g1794
sg74
g1797
ssg77
Nsbag0
(g9
g2
Ntp1800
Rp1801
(dp1802
g13
I23908
sg14
(lp1803
g0
(g16
g2
Ntp1804
Rp1805
(dp1806
g20
I78574
sg21
g22
sg23
I240
sg24
I1
sg25
I300
sg26
g27
sbag0
(g16
g2
Ntp1807
Rp1808
(dp1809
g20
I78576
sg21
g31
sg23
F0.7415944186354597
sg24
I-1
sg25
I1
sg26
g32
sbag0
(g16
g2
Ntp1810
Rp1811
(dp1812
g20
I78578
sg21
g36
sg23
F-0.7545824457729005
sg24
I-1
sg25
I1
sg26
g32
sbag0
(g16
g2
Ntp1813
Rp1814
(dp1815
g20
I78580
sg21
g40
sg23
F0.3441558891795984
sg24
I-1
sg25
I1
sg26
g32
sbag0
(g16
g2
Ntp1816
Rp1817
(dp1818
g20
I78582
sg21
g44
sg23
F0.2583620125469577
sg24
I-1
sg25
I1
sg26
g32
sbag0
(g16
g2
Ntp1819
Rp1820
(dp1821
g20
I78584
sg21
g48
sg23
(lp1822
F76.91860440099742
aF92.9161530645299
asg24
I0
sg25
I100
sg26
g50
sbag0
(g16
g2
Ntp1823
Rp1824
(dp1825
g20
I78586
sg21
g54
sg23
(lp1826
F22.069234331802498
aF42.58689639965133
aF70.5092370355351
asg24
I0
sg25
I100
sg26
g56
sbag0
(g16
g2
Ntp1827
Rp1828
(dp1829
g20
I78588
sg21
g60
sg23
(lp1830
F52.71521799943298
aF76.27814903283937
asg24
I0
sg25
I100
sg26
g50
sbag0
(g16
g2
Ntp1831
Rp1832
(dp1833
g20
I78590
sg21
g65
sg23
(lp1834
F13.175959419209843
aF21.635530135834408
asg24
I1
sg25
I100
sg26
g65
sbag0
(g16
g2
Ntp1835
Rp1836
(dp1837
g20
I78592
sg21
g70
sg23
F0.506819057079247
sg24
F0.01
sg25
F0.99
sg26
g32
sbag0
(g16
g2
Ntp1838
Rp1839
(dp1840
g20
I78594
sg21
g74
sg23
I219
sg24
I1
sg25
I300
sg26
g27
sbasg75
(dp1841
g22
g1805
sg31
g1808
sg36
g1811
sg40
g1814
sg44
g1817
sg48
g1820
sg54
g1824
sg60
g1828
sg65
g1832
sg70
g1836
sg74
g1839
ssg77
Nsbag0
(g9
g2
Ntp1842
Rp1843
(dp1844
g13
I23910
sg14
(lp1845
g0
(g16
g2
Ntp1846
Rp1847
(dp1848
g20
I78507
sg21
g22
sg23
I174
sg24
I1
sg25
I300
sg26
g27
sbag0
(g16
g2
Ntp1849
Rp1850
(dp1851
g20
I78508
sg21
g31
sg23
F0.7985651626360052
sg24
I-1
sg25
I1
sg26
g32
sbag0
(g16
g2
Ntp1852
Rp1853
(dp1854
g20
I78509
sg21
g36
sg23
F0.9637338529799946
sg24
I-1
sg25
I1
sg26
g32
sbag0
(g16
g2
Ntp1855
Rp1856
(dp1857
g20
I78510
sg21
g40
sg23
F0.35545994997510677
sg24
I-1
sg25
I1
sg26
g32
sbag0
(g16
g2
Ntp1858
Rp1859
(dp1860
g20
I78511
sg21
g44
sg23
F0.4172359388655389
sg24
I-1
sg25
I1
sg26
g32
sbag0
(g16
g2
Ntp1861
Rp1862
(dp1863
g20
I78512
sg21
g48
sg23
(lp1864
F68.12166869114358
aF92.27360958340965
asg24
I0
sg25
I100
sg26
g50
sbag0
(g16
g2
Ntp1865
Rp1866
(dp1867
g20
I77974
sg21
g54
sg23
(lp1868
F22.215357512494844
aF41.867267942124606
aF71.58544306915779
asg24
I0
sg25
I100
sg26
g56
sbag0
(g16
g2
Ntp1869
Rp1870
(dp1871
g20
I77997
sg21
g60
sg23
(lp1872
F60.28420329699296
aF74.44662444080033
asg24
I0
sg25
I100
sg26
g50
sbag0
(g16
g2
Ntp1873
Rp1874
(dp1875
g20
I77976
sg21
g65
sg23
(lp1876
F13.157222434175727
aF21.580810521826344
asg24
I1
sg25
I100
sg26
g65
sbag0
(g16
g2
Ntp1877
Rp1878
(dp1879
g20
I78516
sg21
g70
sg23
F0.3692790869803115
sg24
F0.01
sg25
F0.99
sg26
g32
sbag0
(g16
g2
Ntp1880
Rp1881
(dp1882
g20
I78517
sg21
g74
sg23
I219
sg24
I1
sg25
I300
sg26
g27
sbasg75
(dp1883
g22
g1847
sg31
g1850
sg36
g1853
sg40
g1856
sg44
g1859
sg48
g1862
sg54
g1866
sg60
g1870
sg65
g1874
sg70
g1878
sg74
g1881
ssg77
Nsbag0
(g9
g2
Ntp1884
Rp1885
(dp1886
g13
I23912
sg14
(lp1887
g0
(g16
g2
Ntp1888
Rp1889
(dp1890
g20
I77968
sg21
g22
sg23
I250
sg24
I1
sg25
I300
sg26
g27
sbag0
(g16
g2
Ntp1891
Rp1892
(dp1893
g20
I77969
sg21
g31
sg23
F0.8039157676808156
sg24
I-1
sg25
I1
sg26
g32
sbag0
(g16
g2
Ntp1894
Rp1895
(dp1896
g20
I77992
sg21
g36
sg23
F0.6811694175331964
sg24
I-1
sg25
I1
sg26
g32
sbag0
(g16
g2
Ntp1897
Rp1898
(dp1899
g20
I77971
sg21
g40
sg23
F0.5169019169965204
sg24
I-1
sg25
I1
sg26
g32
sbag0
(g16
g2
Ntp1900
Rp1901
(dp1902
g20
I77877
sg21
g44
sg23
F0.41841454627259006
sg24
I-1
sg25
I1
sg26
g32
sbag0
(g16
g2
Ntp1903
Rp1904
(dp1905
g20
I77879
sg21
g48
sg23
(lp1906
F62.7648074639862
aF88.82075915675863
asg24
I0
sg25
I100
sg26
g50
sbag0
(g16
g2
Ntp1907
Rp1908
(dp1909
g20
I75869
sg21
g54
sg23
(lp1910
F20.471903216756807
aF45.319395177914025
aF74.67862559429574
asg24
I0
sg25
I100
sg26
g56
sbag0
(g16
g2
Ntp1911
Rp1912
(dp1913
g20
I76490
sg21
g60
sg23
(lp1914
F99.70923616239729
aF99.94710012361443
asg24
I0
sg25
I100
sg26
g50
sbag0
(g16
g2
Ntp1915
Rp1916
(dp1917
g20
I77998
sg21
g65
sg23
(lp1918
F13.629581796571802
aF21.929700084061054
asg24
I1
sg25
I100
sg26
g65
sbag0
(g16
g2
Ntp1919
Rp1920
(dp1921
g20
I77999
sg21
g70
sg23
F0.7886368513050686
sg24
F0.01
sg25
F0.99
sg26
g32
sbag0
(g16
g2
Ntp1922
Rp1923
(dp1924
g20
I78000
sg21
g74
sg23
I220
sg24
I1
sg25
I300
sg26
g27
sbasg75
(dp1925
g22
g1889
sg31
g1892
sg36
g1895
sg40
g1898
sg44
g1901
sg48
g1904
sg54
g1908
sg60
g1912
sg65
g1916
sg70
g1920
sg74
g1923
ssg77
Nsbag0
(g9
g2
Ntp1926
Rp1927
(dp1928
g13
I23914
sg14
(lp1929
g0
(g16
g2
Ntp1930
Rp1931
(dp1932
g20
I78332
sg21
g22
sg23
I232
sg24
I1
sg25
I300
sg26
g27
sbag0
(g16
g2
Ntp1933
Rp1934
(dp1935
g20
I77969
sg21
g31
sg23
F0.8039157676808156
sg24
I-1
sg25
I1
sg26
g32
sbag0
(g16
g2
Ntp1936
Rp1937
(dp1938
g20
I77970
sg21
g36
sg23
F-0.056418464495022295
sg24
I-1
sg25
I1
sg26
g32
sbag0
(g16
g2
Ntp1939
Rp1940
(dp1941
g20
I77971
sg21
g40
sg23
F-0.04674548348124842
sg24
I-1
sg25
I1
sg26
g32
sbag0
(g16
g2
Ntp1942
Rp1943
(dp1944
g20
I78340
sg21
g44
sg23
F0.44316944390084717
sg24
I-1
sg25
I1
sg26
g32
sbag0
(g16
g2
Ntp1945
Rp1946
(dp1947
g20
I78342
sg21
g48
sg23
(lp1948
F15.761037137263612
aF98.83958389991304
asg24
I0
sg25
I100
sg26
g50
sbag0
(g16
g2
Ntp1949
Rp1950
(dp1951
g20
I75869
sg21
g54
sg23
(lp1952
F24.084625997613568
aF74.26215066892487
aF80.20400725785503
asg24
I0
sg25
I100
sg26
g56
sbag0
(g16
g2
Ntp1953
Rp1954
(dp1955
g20
I76652
sg21
g60
sg23
(lp1956
F66.33458059672587
aF82.6382174052772
asg24
I0
sg25
I100
sg26
g50
sbag0
(g16
g2
Ntp1957
Rp1958
(dp1959
g20
I78348
sg21
g65
sg23
(lp1960
F12.891969729232532
aF21.493325098671733
asg24
I1
sg25
I100
sg26
g65
sbag0
(g16
g2
Ntp1961
Rp1962
(dp1963
g20
I78350
sg21
g70
sg23
F0.1710470698771244
sg24
F0.01
sg25
F0.99
sg26
g32
sbag0
(g16
g2
Ntp1964
Rp1965
(dp1966
g20
I78594
sg21
g74
sg23
I219
sg24
I1
sg25
I300
sg26
g27
sbasg75
(dp1967
g22
g1931
sg31
g1934
sg36
g1937
sg40
g1940
sg44
g1943
sg48
g1946
sg54
g1950
sg60
g1954
sg65
g1958
sg70
g1962
sg74
g1965
ssg77
Nsbag0
(g9
g2
Ntp1968
Rp1969
(dp1970
g13
I23915
sg14
(lp1971
g0
(g16
g2
Ntp1972
Rp1973
(dp1974
g20
I77990
sg21
g22
sg23
I239
sg24
I1
sg25
I300
sg26
g27
sbag0
(g16
g2
Ntp1975
Rp1976
(dp1977
g20
I77991
sg21
g31
sg23
F0.732653901005756
sg24
I-1
sg25
I1
sg26
g32
sbag0
(g16
g2
Ntp1978
Rp1979
(dp1980
g20
I77992
sg21
g36
sg23
F0.6811694175331964
sg24
I-1
sg25
I1
sg26
g32
sbag0
(g16
g2
Ntp1981
Rp1982
(dp1983
g20
I76644
sg21
g40
sg23
F-0.8311136596344063
sg24
I-1
sg25
I1
sg26
g32
sbag0
(g16
g2
Ntp1984
Rp1985
(dp1986
g20
I77877
sg21
g44
sg23
F0.41841454627259006
sg24
I-1
sg25
I1
sg26
g32
sbag0
(g16
g2
Ntp1987
Rp1988
(dp1989
g20
I77879
sg21
g48
sg23
(lp1990
F62.7648074639862
aF88.82075915675863
asg24
I0
sg25
I100
sg26
g50
sbag0
(g16
g2
Ntp1991
Rp1992
(dp1993
g20
I75869
sg21
g54
sg23
(lp1994
F20.471903216756807
aF45.319395177914025
aF74.67862559429574
asg24
I0
sg25
I100
sg26
g56
sbag0
(g16
g2
Ntp1995
Rp1996
(dp1997
g20
I76652
sg21
g60
sg23
(lp1998
F66.33458059672587
aF82.6382174052772
asg24
I0
sg25
I100
sg26
g50
sbag0
(g16
g2
Ntp1999
Rp2000
(dp2001
g20
I76939
sg21
g65
sg23
(lp2002
F12.880514910924202
aF21.48488007351225
asg24
I1
sg25
I100
sg26
g65
sbag0
(g16
g2
Ntp2003
Rp2004
(dp2005
g20
I77999
sg21
g70
sg23
F0.7886368513050686
sg24
F0.01
sg25
F0.99
sg26
g32
sbag0
(g16
g2
Ntp2006
Rp2007
(dp2008
g20
I78000
sg21
g74
sg23
I220
sg24
I1
sg25
I300
sg26
g27
sbasg75
(dp2009
g22
g1973
sg31
g1976
sg36
g1979
sg40
g1982
sg44
g1985
sg48
g1988
sg54
g1992
sg60
g1996
sg65
g2000
sg70
g2004
sg74
g2007
ssg77
Nsbag0
(g9
g2
Ntp2010
Rp2011
(dp2012
g13
I23917
sg14
(lp2013
g0
(g16
g2
Ntp2014
Rp2015
(dp2016
g20
I78595
sg21
g22
sg23
I250
sg24
I1
sg25
I300
sg26
g27
sbag0
(g16
g2
Ntp2017
Rp2018
(dp2019
g20
I78597
sg21
g31
sg23
F0.8419841839380825
sg24
I-1
sg25
I1
sg26
g32
sbag0
(g16
g2
Ntp2020
Rp2021
(dp2022
g20
I78599
sg21
g36
sg23
F-0.06116097993536837
sg24
I-1
sg25
I1
sg26
g32
sbag0
(g16
g2
Ntp2023
Rp2024
(dp2025
g20
I78601
sg21
g40
sg23
F-0.05048791855362103
sg24
I-1
sg25
I1
sg26
g32
sbag0
(g16
g2
Ntp2026
Rp2027
(dp2028
g20
I78603
sg21
g44
sg23
F0.4147837904191911
sg24
I-1
sg25
I1
sg26
g32
sbag0
(g16
g2
Ntp2029
Rp2030
(dp2031
g20
I78605
sg21
g48
sg23
(lp2032
F62.31826495417435
aF88.49415596203606
asg24
I0
sg25
I100
sg26
g50
sbag0
(g16
g2
Ntp2033
Rp2034
(dp2035
g20
I78607
sg21
g54
sg23
(lp2036
F19.690279852605
aF47.73933077769258
aF75.70049831012318
asg24
I0
sg25
I100
sg26
g56
sbag0
(g16
g2
Ntp2037
Rp2038
(dp2039
g20
I78609
sg21
g60
sg23
(lp2040
F64.61619783891054
aF83.20906672269176
asg24
I0
sg25
I100
sg26
g50
sbag0
(g16
g2
Ntp2041
Rp2042
(dp2043
g20
I78611
sg21
g65
sg23
(lp2044
F13.644278454689498
aF21.339294676004048
asg24
I1
sg25
I100
sg26
g65
sbag0
(g16
g2
Ntp2045
Rp2046
(dp2047
g20
I78613
sg21
g70
sg23
F0.4893782145267506
sg24
F0.01
sg25
F0.99
sg26
g32
sbag0
(g16
g2
Ntp2048
Rp2049
(dp2050
g20
I78615
sg21
g74
sg23
I213
sg24
I1
sg25
I300
sg26
g27
sbasg75
(dp2051
g22
g2015
sg31
g2018
sg36
g2021
sg40
g2024
sg44
g2027
sg48
g2030
sg54
g2034
sg60
g2038
sg65
g2042
sg70
g2046
sg74
g2049
ssg77
Nsbag0
(g9
g2
Ntp2052
Rp2053
(dp2054
g13
I23921
sg14
(lp2055
g0
(g16
g2
Ntp2056
Rp2057
(dp2058
g20
I76923
sg21
g22
sg23
I233
sg24
I1
sg25
I300
sg26
g27
sbag0
(g16
g2
Ntp2059
Rp2060
(dp2061
g20
I76925
sg21
g31
sg23
F0.2959228978582529
sg24
I-1
sg25
I1
sg26
g32
sbag0
(g16
g2
Ntp2062
Rp2063
(dp2064
g20
I78212
sg21
g36
sg23
F-0.06949100185611064
sg24
I-1
sg25
I1
sg26
g32
sbag0
(g16
g2
Ntp2065
Rp2066
(dp2067
g20
I78213
sg21
g40
sg23
F0.8264133587141537
sg24
I-1
sg25
I1
sg26
g32
sbag0
(g16
g2
Ntp2068
Rp2069
(dp2070
g20
I78214
sg21
g44
sg23
F0.2637326506867066
sg24
I-1
sg25
I1
sg26
g32
sbag0
(g16
g2
Ntp2071
Rp2072
(dp2073
g20
I78215
sg21
g48
sg23
(lp2074
F61.85556010424398
aF87.81855634627108
asg24
I0
sg25
I100
sg26
g50
sbag0
(g16
g2
Ntp2075
Rp2076
(dp2077
g20
I78216
sg21
g54
sg23
(lp2078
F21.27732786443895
aF42.00899665871131
aF71.51197260845683
asg24
I0
sg25
I100
sg26
g56
sbag0
(g16
g2
Ntp2079
Rp2080
(dp2081
g20
I78217
sg21
g60
sg23
(lp2082
F49.1098017265361
aF75.17098814893139
asg24
I0
sg25
I100
sg26
g50
sbag0
(g16
g2
Ntp2083
Rp2084
(dp2085
g20
I78218
sg21
g65
sg23
(lp2086
F13.24267423817685
aF21.654357212880015
asg24
I1
sg25
I100
sg26
g65
sbag0
(g16
g2
Ntp2087
Rp2088
(dp2089
g20
I78219
sg21
g70
sg23
F0.40353343339809217
sg24
F0.01
sg25
F0.99
sg26
g32
sbag0
(g16
g2
Ntp2090
Rp2091
(dp2092
g20
I78220
sg21
g74
sg23
I220
sg24
I1
sg25
I300
sg26
g27
sbasg75
(dp2093
g22
g2057
sg31
g2060
sg36
g2063
sg40
g2066
sg44
g2069
sg48
g2072
sg54
g2076
sg60
g2080
sg65
g2084
sg70
g2088
sg74
g2091
ssg77
Nsbag0
(g9
g2
Ntp2094
Rp2095
(dp2096
g13
I23925
sg14
(lp2097
g0
(g16
g2
Ntp2098
Rp2099
(dp2100
g20
I77968
sg21
g22
sg23
I250
sg24
I1
sg25
I300
sg26
g27
sbag0
(g16
g2
Ntp2101
Rp2102
(dp2103
g20
I77969
sg21
g31
sg23
F0.4537099297650762
sg24
I-1
sg25
I1
sg26
g32
sbag0
(g16
g2
Ntp2104
Rp2105
(dp2106
g20
I78578
sg21
g36
sg23
F-0.7545824457729005
sg24
I-1
sg25
I1
sg26
g32
sbag0
(g16
g2
Ntp2107
Rp2108
(dp2109
g20
I78580
sg21
g40
sg23
F0.3441558891795984
sg24
I-1
sg25
I1
sg26
g32
sbag0
(g16
g2
Ntp2110
Rp2111
(dp2112
g20
I78582
sg21
g44
sg23
F0.2583620125469577
sg24
I-1
sg25
I1
sg26
g32
sbag0
(g16
g2
Ntp2113
Rp2114
(dp2115
g20
I78584
sg21
g48
sg23
(lp2116
F76.91860440099742
aF92.9161530645299
asg24
I0
sg25
I100
sg26
g50
sbag0
(g16
g2
Ntp2117
Rp2118
(dp2119
g20
I78586
sg21
g54
sg23
(lp2120
F22.069234331802498
aF42.58689639965133
aF70.5092370355351
asg24
I0
sg25
I100
sg26
g56
sbag0
(g16
g2
Ntp2121
Rp2122
(dp2123
g20
I78588
sg21
g60
sg23
(lp2124
F68.4712433963943
aF93.79842435567848
asg24
I0
sg25
I100
sg26
g50
sbag0
(g16
g2
Ntp2125
Rp2126
(dp2127
g20
I78590
sg21
g65
sg23
(lp2128
F13.175959419209843
aF21.635530135834408
asg24
I1
sg25
I100
sg26
g65
sbag0
(g16
g2
Ntp2129
Rp2130
(dp2131
g20
I78592
sg21
g70
sg23
F0.3731125122196131
sg24
F0.01
sg25
F0.99
sg26
g32
sbag0
(g16
g2
Ntp2132
Rp2133
(dp2134
g20
I78352
sg21
g74
sg23
I226
sg24
I1
sg25
I300
sg26
g27
sbasg75
(dp2135
g22
g2099
sg31
g2102
sg36
g2105
sg40
g2108
sg44
g2111
sg48
g2114
sg54
g2118
sg60
g2122
sg65
g2126
sg70
g2130
sg74
g2133
ssg77
Nsbag0
(g9
g2
Ntp2136
Rp2137
(dp2138
g13
I23927
sg14
(lp2139
g0
(g16
g2
Ntp2140
Rp2141
(dp2142
g20
I77968
sg21
g22
sg23
I250
sg24
I1
sg25
I300
sg26
g27
sbag0
(g16
g2
Ntp2143
Rp2144
(dp2145
g20
I76595
sg21
g31
sg23
F0.8039157676808157
sg24
I-1
sg25
I1
sg26
g32
sbag0
(g16
g2
Ntp2146
Rp2147
(dp2148
g20
I77970
sg21
g36
sg23
F-0.056418464495022295
sg24
I-1
sg25
I1
sg26
g32
sbag0
(g16
g2
Ntp2149
Rp2150
(dp2151
g20
I77971
sg21
g40
sg23
F-0.1903094565477485
sg24
I-1
sg25
I1
sg26
g32
sbag0
(g16
g2
Ntp2152
Rp2153
(dp2154
g20
I76487
sg21
g44
sg23
F-0.4738796512028194
sg24
I-1
sg25
I1
sg26
g32
sbag0
(g16
g2
Ntp2155
Rp2156
(dp2157
g20
I77879
sg21
g48
sg23
(lp2158
F62.7648074639862
aF88.82075915675863
asg24
I0
sg25
I100
sg26
g50
sbag0
(g16
g2
Ntp2159
Rp2160
(dp2161
g20
I75869
sg21
g54
sg23
(lp2162
F20.471903216756807
aF45.319395177914025
aF74.67862559429574
asg24
I0
sg25
I100
sg26
g56
sbag0
(g16
g2
Ntp2163
Rp2164
(dp2165
g20
I78532
sg21
g60
sg23
(lp2166
F58.51084150477443
aF74.56157994115263
asg24
I0
sg25
I100
sg26
g50
sbag0
(g16
g2
Ntp2167
Rp2168
(dp2169
g20
I76939
sg21
g65
sg23
(lp2170
F12.880514910924202
aF21.48488007351225
asg24
I1
sg25
I100
sg26
g65
sbag0
(g16
g2
Ntp2171
Rp2172
(dp2173
g20
I77887
sg21
g70
sg23
F0.45519268399042334
sg24
F0.01
sg25
F0.99
sg26
g32
sbag0
(g16
g2
Ntp2174
Rp2175
(dp2176
g20
I77120
sg21
g74
sg23
I218
sg24
I1
sg25
I300
sg26
g27
sbasg75
(dp2177
g22
g2141
sg31
g2144
sg36
g2147
sg40
g2150
sg44
g2153
sg48
g2156
sg54
g2160
sg60
g2164
sg65
g2168
sg70
g2172
sg74
g2175
ssg77
Nsbag0
(g9
g2
Ntp2178
Rp2179
(dp2180
g13
I23928
sg14
(lp2181
g0
(g16
g2
Ntp2182
Rp2183
(dp2184
g20
I76638
sg21
g22
sg23
I250
sg24
I1
sg25
I300
sg26
g27
sbag0
(g16
g2
Ntp2185
Rp2186
(dp2187
g20
I77969
sg21
g31
sg23
F0.8039157676808156
sg24
I-1
sg25
I1
sg26
g32
sbag0
(g16
g2
Ntp2188
Rp2189
(dp2190
g20
I76333
sg21
g36
sg23
F-0.0564184644950223
sg24
I-1
sg25
I1
sg26
g32
sbag0
(g16
g2
Ntp2191
Rp2192
(dp2193
g20
I76599
sg21
g40
sg23
F-0.5671181715040772
sg24
I-1
sg25
I1
sg26
g32
sbag0
(g16
g2
Ntp2194
Rp2195
(dp2196
g20
I77877
sg21
g44
sg23
F0.41841454627259006
sg24
I-1
sg25
I1
sg26
g32
sbag0
(g16
g2
Ntp2197
Rp2198
(dp2199
g20
I76648
sg21
g48
sg23
(lp2200
F69.11214601237968
aF93.14824839527718
asg24
I0
sg25
I100
sg26
g50
sbag0
(g16
g2
Ntp2201
Rp2202
(dp2203
g20
I78530
sg21
g54
sg23
(lp2204
F22.30715404219717
aF41.853398226632365
aF71.59263296272029
asg24
I0
sg25
I100
sg26
g56
sbag0
(g16
g2
Ntp2205
Rp2206
(dp2207
g20
I76652
sg21
g60
sg23
(lp2208
F66.33458059672587
aF82.6382174052772
asg24
I0
sg25
I100
sg26
g50
sbag0
(g16
g2
Ntp2209
Rp2210
(dp2211
g20
I76786
sg21
g65
sg23
(lp2212
F13.157222434175726
aF21.580810521826344
asg24
I1
sg25
I100
sg26
g65
sbag0
(g16
g2
Ntp2213
Rp2214
(dp2215
g20
I77250
sg21
g70
sg23
F0.6531059476829189
sg24
F0.01
sg25
F0.99
sg26
g32
sbag0
(g16
g2
Ntp2216
Rp2217
(dp2218
g20
I72819
sg21
g74
sg23
I219
sg24
I1
sg25
I300
sg26
g27
sbasg75
(dp2219
g22
g2183
sg31
g2186
sg36
g2189
sg40
g2192
sg44
g2195
sg48
g2198
sg54
g2202
sg60
g2206
sg65
g2210
sg70
g2214
sg74
g2217
ssg77
Nsbag0
(g9
g2
Ntp2220
Rp2221
(dp2222
g13
I23929
sg14
(lp2223
g0
(g16
g2
Ntp2224
Rp2225
(dp2226
g20
I77990
sg21
g22
sg23
I239
sg24
I1
sg25
I300
sg26
g27
sbag0
(g16
g2
Ntp2227
Rp2228
(dp2229
g20
I77991
sg21
g31
sg23
F0.732653901005756
sg24
I-1
sg25
I1
sg26
g32
sbag0
(g16
g2
Ntp2230
Rp2231
(dp2232
g20
I77992
sg21
g36
sg23
F0.6811694175331964
sg24
I-1
sg25
I1
sg26
g32
sbag0
(g16
g2
Ntp2233
Rp2234
(dp2235
g20
I77993
sg21
g40
sg23
F0.16998193289918906
sg24
I-1
sg25
I1
sg26
g32
sbag0
(g16
g2
Ntp2236
Rp2237
(dp2238
g20
I77994
sg21
g44
sg23
F0.25123295792849487
sg24
I-1
sg25
I1
sg26
g32
sbag0
(g16
g2
Ntp2239
Rp2240
(dp2241
g20
I77995
sg21
g48
sg23
(lp2242
F61.14108497261319
aF86.24773175329143
asg24
I0
sg25
I100
sg26
g50
sbag0
(g16
g2
Ntp2243
Rp2244
(dp2245
g20
I77996
sg21
g54
sg23
(lp2246
F24.55632838408713
aF42.823421320854465
aF65.71820503586974
asg24
I0
sg25
I100
sg26
g56
sbag0
(g16
g2
Ntp2247
Rp2248
(dp2249
g20
I77997
sg21
g60
sg23
(lp2250
F60.28420329699296
aF74.44662444080033
asg24
I0
sg25
I100
sg26
g50
sbag0
(g16
g2
Ntp2251
Rp2252
(dp2253
g20
I77998
sg21
g65
sg23
(lp2254
F13.629581796571802
aF21.929700084061054
asg24
I1
sg25
I100
sg26
g65
sbag0
(g16
g2
Ntp2255
Rp2256
(dp2257
g20
I77999
sg21
g70
sg23
F0.7886368513050686
sg24
F0.01
sg25
F0.99
sg26
g32
sbag0
(g16
g2
Ntp2258
Rp2259
(dp2260
g20
I78451
sg21
g74
sg23
I218
sg24
I1
sg25
I300
sg26
g27
sbasg75
(dp2261
g22
g2225
sg31
g2228
sg36
g2231
sg40
g2234
sg44
g2237
sg48
g2240
sg54
g2244
sg60
g2248
sg65
g2252
sg70
g2256
sg74
g2259
ssg77
Nsbag0
(g9
g2
Ntp2262
Rp2263
(dp2264
g13
I23930
sg14
(lp2265
g0
(g16
g2
Ntp2266
Rp2267
(dp2268
g20
I78332
sg21
g22
sg23
I232
sg24
I1
sg25
I300
sg26
g27
sbag0
(g16
g2
Ntp2269
Rp2270
(dp2271
g20
I78334
sg21
g31
sg23
F0.6541570966291183
sg24
I-1
sg25
I1
sg26
g32
sbag0
(g16
g2
Ntp2272
Rp2273
(dp2274
g20
I78443
sg21
g36
sg23
F0.626263434665021
sg24
I-1
sg25
I1
sg26
g32
sbag0
(g16
g2
Ntp2275
Rp2276
(dp2277
g20
I76599
sg21
g40
sg23
F0.5960584066569988
sg24
I-1
sg25
I1
sg26
g32
sbag0
(g16
g2
Ntp2278
Rp2279
(dp2280
g20
I76542
sg21
g44
sg23
F0.32200518941673556
sg24
I-1
sg25
I1
sg26
g32
sbag0
(g16
g2
Ntp2281
Rp2282
(dp2283
g20
I77110
sg21
g48
sg23
(lp2284
F64.18864034847176
aF88.80055758825374
asg24
I0
sg25
I100
sg26
g50
sbag0
(g16
g2
Ntp2285
Rp2286
(dp2287
g20
I77112
sg21
g54
sg23
(lp2288
F21.762051171267373
aF42.46963393212779
aF71.74774133178855
asg24
I0
sg25
I100
sg26
g56
sbag0
(g16
g2
Ntp2289
Rp2290
(dp2291
g20
I78448
sg21
g60
sg23
(lp2292
F69.66979580794657
aF87.67065631555529
asg24
I0
sg25
I100
sg26
g50
sbag0
(g16
g2
Ntp2293
Rp2294
(dp2295
g20
I78449
sg21
g65
sg23
(lp2296
F13.419791053696411
aF21.805119592990227
asg24
I1
sg25
I100
sg26
g65
sbag0
(g16
g2
Ntp2297
Rp2298
(dp2299
g20
I78450
sg21
g70
sg23
F0.6149556899776418
sg24
F0.01
sg25
F0.99
sg26
g32
sbag0
(g16
g2
Ntp2300
Rp2301
(dp2302
g20
I78000
sg21
g74
sg23
I220
sg24
I1
sg25
I300
sg26
g27
sbasg75
(dp2303
g22
g2267
sg31
g2270
sg36
g2273
sg40
g2276
sg44
g2279
sg48
g2282
sg54
g2286
sg60
g2290
sg65
g2294
sg70
g2298
sg74
g2301
ssg77
Nsbag0
(g9
g2
Ntp2304
Rp2305
(dp2306
g13
I23931
sg14
(lp2307
g0
(g16
g2
Ntp2308
Rp2309
(dp2310
g20
I78639
sg21
g22
sg23
I246
sg24
I1
sg25
I300
sg26
g27
sbag0
(g16
g2
Ntp2311
Rp2312
(dp2313
g20
I78641
sg21
g31
sg23
F0.8003561658590318
sg24
I-1
sg25
I1
sg26
g32
sbag0
(g16
g2
Ntp2314
Rp2315
(dp2316
g20
I78643
sg21
g36
sg23
F-0.07000845814305577
sg24
I-1
sg25
I1
sg26
g32
sbag0
(g16
g2
Ntp2317
Rp2318
(dp2319
g20
I78645
sg21
g40
sg23
F0.10748286642124635
sg24
I-1
sg25
I1
sg26
g32
sbag0
(g16
g2
Ntp2320
Rp2321
(dp2322
g20
I78647
sg21
g44
sg23
F0.414384767466009
sg24
I-1
sg25
I1
sg26
g32
sbag0
(g16
g2
Ntp2323
Rp2324
(dp2325
g20
I78649
sg21
g48
sg23
(lp2326
F62.671576809991436
aF88.67302145598387
asg24
I0
sg25
I100
sg26
g50
sbag0
(g16
g2
Ntp2327
Rp2328
(dp2329
g20
I78651
sg21
g54
sg23
(lp2330
F20.286015284759284
aF45.659520655546686
aF74.97847239041775
asg24
I0
sg25
I100
sg26
g56
sbag0
(g16
g2
Ntp2331
Rp2332
(dp2333
g20
I78653
sg21
g60
sg23
(lp2334
F68.00321500391544
aF83.26045037369732
asg24
I0
sg25
I100
sg26
g50
sbag0
(g16
g2
Ntp2335
Rp2336
(dp2337
g20
I78655
sg21
g65
sg23
(lp2338
F12.893022992422981
aF21.50239853892366
asg24
I1
sg25
I100
sg26
g65
sbag0
(g16
g2
Ntp2339
Rp2340
(dp2341
g20
I78657
sg21
g70
sg23
F0.4845265220817244
sg24
F0.01
sg25
F0.99
sg26
g32
sbag0
(g16
g2
Ntp2342
Rp2343
(dp2344
g20
I78659
sg21
g74
sg23
I217
sg24
I1
sg25
I300
sg26
g27
sbasg75
(dp2345
g22
g2309
sg31
g2312
sg36
g2315
sg40
g2318
sg44
g2321
sg48
g2324
sg54
g2328
sg60
g2332
sg65
g2336
sg70
g2340
sg74
g2343
ssg77
Nsbag0
(g9
g2
Ntp2346
Rp2347
(dp2348
g13
I23932
sg14
(lp2349
g0
(g16
g2
Ntp2350
Rp2351
(dp2352
g20
I78640
sg21
g22
sg23
I242
sg24
I1
sg25
I300
sg26
g27
sbag0
(g16
g2
Ntp2353
Rp2354
(dp2355
g20
I78642
sg21
g31
sg23
F0.7362135028275401
sg24
I-1
sg25
I1
sg26
g32
sbag0
(g16
g2
Ntp2356
Rp2357
(dp2358
g20
I78644
sg21
g36
sg23
F0.69475941118123
sg24
I-1
sg25
I1
sg26
g32
sbag0
(g16
g2
Ntp2359
Rp2360
(dp2361
g20
I78646
sg21
g40
sg23
F-0.9853420095369011
sg24
I-1
sg25
I1
sg26
g32
sbag0
(g16
g2
Ntp2362
Rp2363
(dp2364
g20
I78648
sg21
g44
sg23
F-0.2672055479684662
sg24
I-1
sg25
I1
sg26
g32
sbag0
(g16
g2
Ntp2365
Rp2366
(dp2367
g20
I78650
sg21
g48
sg23
(lp2368
F61.234315626607966
aF86.39546945406619
asg24
I0
sg25
I100
sg26
g50
sbag0
(g16
g2
Ntp2369
Rp2370
(dp2371
g20
I78652
sg21
g54
sg23
(lp2372
F22.831099381698976
aF41.00269363732783
aF70.8731208265593
asg24
I0
sg25
I100
sg26
g56
sbag0
(g16
g2
Ntp2373
Rp2374
(dp2375
g20
I78654
sg21
g60
sg23
(lp2376
F50.2750823489484
aF76.64963822759941
asg24
I0
sg25
I100
sg26
g50
sbag0
(g16
g2
Ntp2377
Rp2378
(dp2379
g20
I78656
sg21
g65
sg23
(lp2380
F12.10182432366855
aF20.394268046371405
asg24
I1
sg25
I100
sg26
g65
sbag0
(g16
g2
Ntp2381
Rp2382
(dp2383
g20
I78658
sg21
g70
sg23
F0.7593030132137675
sg24
F0.01
sg25
F0.99
sg26
g32
sbag0
(g16
g2
Ntp2384
Rp2385
(dp2386
g20
I78660
sg21
g74
sg23
I220
sg24
I1
sg25
I300
sg26
g27
sbasg75
(dp2387
g22
g2351
sg31
g2354
sg36
g2357
sg40
g2360
sg44
g2363
sg48
g2366
sg54
g2370
sg60
g2374
sg65
g2378
sg70
g2382
sg74
g2385
ssg77
Nsbag0
(g9
g2
Ntp2388
Rp2389
(dp2390
g13
I23933
sg14
(lp2391
g0
(g16
g2
Ntp2392
Rp2393
(dp2394
g20
I77968
sg21
g22
sg23
I250
sg24
I1
sg25
I300
sg26
g27
sbag0
(g16
g2
Ntp2395
Rp2396
(dp2397
g20
I77102
sg21
g31
sg23
F0.7866475913897588
sg24
I-1
sg25
I1
sg26
g32
sbag0
(g16
g2
Ntp2398
Rp2399
(dp2400
g20
I77970
sg21
g36
sg23
F-0.056418464495022295
sg24
I-1
sg25
I1
sg26
g32
sbag0
(g16
g2
Ntp2401
Rp2402
(dp2403
g20
I77971
sg21
g40
sg23
F-0.04674548348124842
sg24
I-1
sg25
I1
sg26
g32
sbag0
(g16
g2
Ntp2404
Rp2405
(dp2406
g20
I76542
sg21
g44
sg23
F0.32200518941673556
sg24
I-1
sg25
I1
sg26
g32
sbag0
(g16
g2
Ntp2407
Rp2408
(dp2409
g20
I77110
sg21
g48
sg23
(lp2410
F64.18864034847176
aF88.80055758825374
asg24
I0
sg25
I100
sg26
g50
sbag0
(g16
g2
Ntp2411
Rp2412
(dp2413
g20
I75869
sg21
g54
sg23
(lp2414
F20.471903216756807
aF45.319395177914025
aF74.67862559429574
asg24
I0
sg25
I100
sg26
g56
sbag0
(g16
g2
Ntp2415
Rp2416
(dp2417
g20
I76652
sg21
g60
sg23
(lp2418
F66.33458059672587
aF82.6382174052772
asg24
I0
sg25
I100
sg26
g50
sbag0
(g16
g2
Ntp2419
Rp2420
(dp2421
g20
I76939
sg21
g65
sg23
(lp2422
F12.880514910924202
aF21.48488007351225
asg24
I1
sg25
I100
sg26
g65
sbag0
(g16
g2
Ntp2423
Rp2424
(dp2425
g20
I76788
sg21
g70
sg23
F0.6900364716916536
sg24
F0.01
sg25
F0.99
sg26
g32
sbag0
(g16
g2
Ntp2426
Rp2427
(dp2428
g20
I76790
sg21
g74
sg23
I219
sg24
I1
sg25
I300
sg26
g27
sbasg75
(dp2429
g22
g2393
sg31
g2396
sg36
g2399
sg40
g2402
sg44
g2405
sg48
g2408
sg54
g2412
sg60
g2416
sg65
g2420
sg70
g2424
sg74
g2427
ssg77
Nsbag0
(g9
g2
Ntp2430
Rp2431
(dp2432
g13
I23934
sg14
(lp2433
g0
(g16
g2
Ntp2434
Rp2435
(dp2436
g20
I77100
sg21
g22
sg23
I241
sg24
I1
sg25
I300
sg26
g27
sbag0
(g16
g2
Ntp2437
Rp2438
(dp2439
g20
I77969
sg21
g31
sg23
F0.8039157676808156
sg24
I-1
sg25
I1
sg26
g32
sbag0
(g16
g2
Ntp2440
Rp2441
(dp2442
g20
I77104
sg21
g36
sg23
F-0.32768264838823496
sg24
I-1
sg25
I1
sg26
g32
sbag0
(g16
g2
Ntp2443
Rp2444
(dp2445
g20
I76599
sg21
g40
sg23
F0.755928803500395
sg24
I-1
sg25
I1
sg26
g32
sbag0
(g16
g2
Ntp2446
Rp2447
(dp2448
g20
I77877
sg21
g44
sg23
F0.41841454627259006
sg24
I-1
sg25
I1
sg26
g32
sbag0
(g16
g2
Ntp2449
Rp2450
(dp2451
g20
I77879
sg21
g48
sg23
(lp2452
F62.7648074639862
aF88.82075915675863
asg24
I0
sg25
I100
sg26
g50
sbag0
(g16
g2
Ntp2453
Rp2454
(dp2455
g20
I77112
sg21
g54
sg23
(lp2456
F11.243229542269253
aF36.00669235610734
aF55.19756238657993
asg24
I0
sg25
I100
sg26
g56
sbag0
(g16
g2
Ntp2457
Rp2458
(dp2459
g20
I77114
sg21
g60
sg23
(lp2460
F61.53718980435317
aF78.38480440415788
asg24
I0
sg25
I100
sg26
g50
sbag0
(g16
g2
Ntp2461
Rp2462
(dp2463
g20
I77116
sg21
g65
sg23
(lp2464
F13.061904469053648
aF21.618608897561465
asg24
I1
sg25
I100
sg26
g65
sbag0
(g16
g2
Ntp2465
Rp2466
(dp2467
g20
I77887
sg21
g70
sg23
F0.793213452032246
sg24
F0.01
sg25
F0.99
sg26
g32
sbag0
(g16
g2
Ntp2468
Rp2469
(dp2470
g20
I77120
sg21
g74
sg23
I218
sg24
I1
sg25
I300
sg26
g27
sbasg75
(dp2471
g22
g2435
sg31
g2438
sg36
g2441
sg40
g2444
sg44
g2447
sg48
g2450
sg54
g2454
sg60
g2458
sg65
g2462
sg70
g2466
sg74
g2469
ssg77
Nsbag0
(g9
g2
Ntp2472
Rp2473
(dp2474
g13
I23935
sg14
(lp2475
g0
(g16
g2
Ntp2476
Rp2477
(dp2478
g20
I78661
sg21
g22
sg23
I250
sg24
I1
sg25
I300
sg26
g27
sbag0
(g16
g2
Ntp2479
Rp2480
(dp2481
g20
I78663
sg21
g31
sg23
F0.8039157676808157
sg24
I-1
sg25
I1
sg26
g32
sbag0
(g16
g2
Ntp2482
Rp2483
(dp2484
g20
I78665
sg21
g36
sg23
F-0.056243376277843246
sg24
I-1
sg25
I1
sg26
g32
sbag0
(g16
g2
Ntp2485
Rp2486
(dp2487
g20
I78667
sg21
g40
sg23
F-0.21436904488101083
sg24
I-1
sg25
I1
sg26
g32
sbag0
(g16
g2
Ntp2488
Rp2489
(dp2490
g20
I78669
sg21
g44
sg23
F-0.605057878424808
sg24
I-1
sg25
I1
sg26
g32
sbag0
(g16
g2
Ntp2491
Rp2492
(dp2493
g20
I78671
sg21
g48
sg23
(lp2494
F62.76480746398621
aF88.82075915675863
asg24
I0
sg25
I100
sg26
g50
sbag0
(g16
g2
Ntp2495
Rp2496
(dp2497
g20
I78673
sg21
g54
sg23
(lp2498
F20.471903216756807
aF45.319395177914025
aF74.67862559429574
asg24
I0
sg25
I100
sg26
g56
sbag0
(g16
g2
Ntp2499
Rp2500
(dp2501
g20
I78675
sg21
g60
sg23
(lp2502
F59.09738260185334
aF74.92299331615132
asg24
I0
sg25
I100
sg26
g50
sbag0
(g16
g2
Ntp2503
Rp2504
(dp2505
g20
I78677
sg21
g65
sg23
(lp2506
F12.922103058397035
aF21.50957645317076
asg24
I1
sg25
I100
sg26
g65
sbag0
(g16
g2
Ntp2507
Rp2508
(dp2509
g20
I78679
sg21
g70
sg23
F0.48100317792429026
sg24
F0.01
sg25
F0.99
sg26
g32
sbag0
(g16
g2
Ntp2510
Rp2511
(dp2512
g20
I78681
sg21
g74
sg23
I216
sg24
I1
sg25
I300
sg26
g27
sbasg75
(dp2513
g22
g2477
sg31
g2480
sg36
g2483
sg40
g2486
sg44
g2489
sg48
g2492
sg54
g2496
sg60
g2500
sg65
g2504
sg70
g2508
sg74
g2511
ssg77
Nsbag0
(g9
g2
Ntp2514
Rp2515
(dp2516
g13
I23936
sg14
(lp2517
g0
(g16
g2
Ntp2518
Rp2519
(dp2520
g20
I78662
sg21
g22
sg23
I250
sg24
I1
sg25
I300
sg26
g27
sbag0
(g16
g2
Ntp2521
Rp2522
(dp2523
g20
I78664
sg21
g31
sg23
F0.8039157676808156
sg24
I-1
sg25
I1
sg26
g32
sbag0
(g16
g2
Ntp2524
Rp2525
(dp2526
g20
I78666
sg21
g36
sg23
F0.6809943293160173
sg24
I-1
sg25
I1
sg26
g32
sbag0
(g16
g2
Ntp2527
Rp2528
(dp2529
g20
I78668
sg21
g40
sg23
F0.5409615053297827
sg24
I-1
sg25
I1
sg26
g32
sbag0
(g16
g2
Ntp2530
Rp2531
(dp2532
g20
I78670
sg21
g44
sg23
F0.5495927734945786
sg24
I-1
sg25
I1
sg26
g32
sbag0
(g16
g2
Ntp2533
Rp2534
(dp2535
g20
I78672
sg21
g48
sg23
(lp2536
F62.76480746398621
aF88.82075915675863
asg24
I0
sg25
I100
sg26
g50
sbag0
(g16
g2
Ntp2537
Rp2538
(dp2539
g20
I78674
sg21
g54
sg23
(lp2540
F20.471903216756807
aF45.319395177914025
aF74.67862559429574
asg24
I0
sg25
I100
sg26
g56
sbag0
(g16
g2
Ntp2541
Rp2542
(dp2543
g20
I78676
sg21
g60
sg23
(lp2544
F99.12269506531837
aF99.58568674861573
asg24
I0
sg25
I100
sg26
g50
sbag0
(g16
g2
Ntp2545
Rp2546
(dp2547
g20
I78678
sg21
g65
sg23
(lp2548
F13.58799364909897
aF21.905003704402546
asg24
I1
sg25
I100
sg26
g65
sbag0
(g16
g2
Ntp2549
Rp2550
(dp2551
g20
I78680
sg21
g70
sg23
F0.7628263573712017
sg24
F0.01
sg25
F0.99
sg26
g32
sbag0
(g16
g2
Ntp2552
Rp2553
(dp2554
g20
I78682
sg21
g74
sg23
I221
sg24
I1
sg25
I300
sg26
g27
sbasg75
(dp2555
g22
g2519
sg31
g2522
sg36
g2525
sg40
g2528
sg44
g2531
sg48
g2534
sg54
g2538
sg60
g2542
sg65
g2546
sg70
g2550
sg74
g2553
ssg77
Nsbag0
(g9
g2
Ntp2556
Rp2557
(dp2558
g13
I23937
sg14
(lp2559
g0
(g16
g2
Ntp2560
Rp2561
(dp2562
g20
I78683
sg21
g22
sg23
I211
sg24
I1
sg25
I300
sg26
g27
sbag0
(g16
g2
Ntp2563
Rp2564
(dp2565
g20
I78685
sg21
g31
sg23
F-0.1753450805311363
sg24
I-1
sg25
I1
sg26
g32
sbag0
(g16
g2
Ntp2566
Rp2567
(dp2568
g20
I78687
sg21
g36
sg23
F0.034437538805981535
sg24
I-1
sg25
I1
sg26
g32
sbag0
(g16
g2
Ntp2569
Rp2570
(dp2571
g20
I78689
sg21
g40
sg23
F0.5178740600568283
sg24
I-1
sg25
I1
sg26
g32
sbag0
(g16
g2
Ntp2572
Rp2573
(dp2574
g20
I78691
sg21
g44
sg23
F0.3241146148633291
sg24
I-1
sg25
I1
sg26
g32
sbag0
(g16
g2
Ntp2575
Rp2576
(dp2577
g20
I78693
sg21
g48
sg23
(lp2578
F64.36044381267973
aF88.9444710755821
asg24
I0
sg25
I100
sg26
g50
sbag0
(g16
g2
Ntp2579
Rp2580
(dp2581
g20
I78695
sg21
g54
sg23
(lp2582
F21.77595359760492
aF42.47139413798295
aF71.71774245271563
asg24
I0
sg25
I100
sg26
g56
sbag0
(g16
g2
Ntp2583
Rp2584
(dp2585
g20
I78697
sg21
g60
sg23
(lp2586
F61.54781055154443
aF78.41818578020526
asg24
I0
sg25
I100
sg26
g50
sbag0
(g16
g2
Ntp2587
Rp2588
(dp2589
g20
I78699
sg21
g65
sg23
(lp2590
F12.943733632992208
aF21.553850444443878
asg24
I1
sg25
I100
sg26
g65
sbag0
(g16
g2
Ntp2591
Rp2592
(dp2593
g20
I78701
sg21
g70
sg23
F0.4763739970246641
sg24
F0.01
sg25
F0.99
sg26
g32
sbag0
(g16
g2
Ntp2594
Rp2595
(dp2596
g20
I78703
sg21
g74
sg23
I217
sg24
I1
sg25
I300
sg26
g27
sbasg75
(dp2597
g22
g2561
sg31
g2564
sg36
g2567
sg40
g2570
sg44
g2573
sg48
g2576
sg54
g2580
sg60
g2584
sg65
g2588
sg70
g2592
sg74
g2595
ssg77
Nsbag0
(g9
g2
Ntp2598
Rp2599
(dp2600
g13
I23938
sg14
(lp2601
g0
(g16
g2
Ntp2602
Rp2603
(dp2604
g20
I78684
sg21
g22
sg23
I238
sg24
I1
sg25
I300
sg26
g27
sbag0
(g16
g2
Ntp2605
Rp2606
(dp2607
g20
I78686
sg21
g31
sg23
F0.7329614283104935
sg24
I-1
sg25
I1
sg26
g32
sbag0
(g16
g2
Ntp2608
Rp2609
(dp2610
g20
I78688
sg21
g36
sg23
F0.5471663888047703
sg24
I-1
sg25
I1
sg26
g32
sbag0
(g16
g2
Ntp2611
Rp2612
(dp2613
g20
I78690
sg21
g40
sg23
F0.24816627949935952
sg24
I-1
sg25
I1
sg26
g32
sbag0
(g16
g2
Ntp2614
Rp2615
(dp2616
g20
I78692
sg21
g44
sg23
F-0.2733447522216408
sg24
I-1
sg25
I1
sg26
g32
sbag0
(g16
g2
Ntp2617
Rp2618
(dp2619
g20
I78694
sg21
g48
sg23
(lp2620
F60.96928150840521
aF86.10381826596304
asg24
I0
sg25
I100
sg26
g50
sbag0
(g16
g2
Ntp2621
Rp2622
(dp2623
g20
I78696
sg21
g54
sg23
(lp2624
F24.542425957749582
aF42.82166111499931
aF65.74820391494266
asg24
I0
sg25
I100
sg26
g56
sbag0
(g16
g2
Ntp2625
Rp2626
(dp2627
g20
I78698
sg21
g60
sg23
(lp2628
F60.2735825498017
aF74.41324306475295
asg24
I0
sg25
I100
sg26
g50
sbag0
(g16
g2
Ntp2629
Rp2630
(dp2631
g20
I78700
sg21
g65
sg23
(lp2632
F13.747752632633242
aF21.99445853717864
asg24
I1
sg25
I100
sg26
g65
sbag0
(g16
g2
Ntp2633
Rp2634
(dp2635
g20
I78702
sg21
g70
sg23
F0.8244850725160042
sg24
F0.01
sg25
F0.99
sg26
g32
sbag0
(g16
g2
Ntp2636
Rp2637
(dp2638
g20
I78704
sg21
g74
sg23
I220
sg24
I1
sg25
I300
sg26
g27
sbasg75
(dp2639
g22
g2603
sg31
g2606
sg36
g2609
sg40
g2612
sg44
g2615
sg48
g2618
sg54
g2622
sg60
g2626
sg65
g2630
sg70
g2634
sg74
g2637
ssg77
Nsbag0
(g9
g2
Ntp2640
Rp2641
(dp2642
g13
I23939
sg14
(lp2643
g0
(g16
g2
Ntp2644
Rp2645
(dp2646
g20
I77100
sg21
g22
sg23
I241
sg24
I1
sg25
I300
sg26
g27
sbag0
(g16
g2
Ntp2647
Rp2648
(dp2649
g20
I77102
sg21
g31
sg23
F0.7866475913897588
sg24
I-1
sg25
I1
sg26
g32
sbag0
(g16
g2
Ntp2650
Rp2651
(dp2652
g20
I78270
sg21
g36
sg23
F0.6733405682098755
sg24
I-1
sg25
I1
sg26
g32
sbag0
(g16
g2
Ntp2653
Rp2654
(dp2655
g20
I78272
sg21
g40
sg23
F-0.9418017325731196
sg24
I-1
sg25
I1
sg26
g32
sbag0
(g16
g2
Ntp2656
Rp2657
(dp2658
g20
I78274
sg21
g44
sg23
F0.7824420498872756
sg24
I-1
sg25
I1
sg26
g32
sbag0
(g16
g2
Ntp2659
Rp2660
(dp2661
g20
I78215
sg21
g48
sg23
(lp2662
F61.85556010424398
aF87.81855634627108
asg24
I0
sg25
I100
sg26
g50
sbag0
(g16
g2
Ntp2663
Rp2664
(dp2665
g20
I78216
sg21
g54
sg23
(lp2666
F22.13547057974903
aF44.73788585703004
aF81.7326135156074
asg24
I0
sg25
I100
sg26
g56
sbag0
(g16
g2
Ntp2667
Rp2668
(dp2669
g20
I78217
sg21
g60
sg23
(lp2670
F49.1098017265361
aF75.17098814893139
asg24
I0
sg25
I100
sg26
g50
sbag0
(g16
g2
Ntp2671
Rp2672
(dp2673
g20
I78218
sg21
g65
sg23
(lp2674
F13.24267423817685
aF21.654357212880015
asg24
I1
sg25
I100
sg26
g65
sbag0
(g16
g2
Ntp2675
Rp2676
(dp2677
g20
I77130
sg21
g70
sg23
F0.8212352354427384
sg24
F0.01
sg25
F0.99
sg26
g32
sbag0
(g16
g2
Ntp2678
Rp2679
(dp2680
g20
I75184
sg21
g74
sg23
I221
sg24
I1
sg25
I300
sg26
g27
sbasg75
(dp2681
g22
g2645
sg31
g2648
sg36
g2651
sg40
g2654
sg44
g2657
sg48
g2660
sg54
g2664
sg60
g2668
sg65
g2672
sg70
g2676
sg74
g2679
ssg77
Nsbag0
(g9
g2
Ntp2682
Rp2683
(dp2684
g13
I23940
sg14
(lp2685
g0
(g16
g2
Ntp2686
Rp2687
(dp2688
g20
I78266
sg21
g22
sg23
I241
sg24
I1
sg25
I300
sg26
g27
sbag0
(g16
g2
Ntp2689
Rp2690
(dp2691
g20
I78268
sg21
g31
sg23
F0.728770621226973
sg24
I-1
sg25
I1
sg26
g32
sbag0
(g16
g2
Ntp2692
Rp2693
(dp2694
g20
I77104
sg21
g36
sg23
F-0.09956548992244454
sg24
I-1
sg25
I1
sg26
g32
sbag0
(g16
g2
Ntp2695
Rp2696
(dp2697
g20
I76599
sg21
g40
sg23
F0.5960584066569988
sg24
I-1
sg25
I1
sg26
g32
sbag0
(g16
g2
Ntp2698
Rp2699
(dp2700
g20
I76542
sg21
g44
sg23
F0.32200518941673556
sg24
I-1
sg25
I1
sg26
g32
sbag0
(g16
g2
Ntp2701
Rp2702
(dp2703
g20
I77973
sg21
g48
sg23
(lp2704
F48.888234260561525
aF82.75288276481385
asg24
I0
sg25
I100
sg26
g50
sbag0
(g16
g2
Ntp2705
Rp2706
(dp2707
g20
I77974
sg21
g54
sg23
(lp2708
F22.215357512494844
aF41.867267942124606
aF71.58544306915779
asg24
I0
sg25
I100
sg26
g56
sbag0
(g16
g2
Ntp2709
Rp2710
(dp2711
g20
I77997
sg21
g60
sg23
(lp2712
F60.28420329699296
aF74.44662444080033
asg24
I0
sg25
I100
sg26
g50
sbag0
(g16
g2
Ntp2713
Rp2714
(dp2715
g20
I75873
sg21
g65
sg23
(lp2716
F13.885568952922215
aF22.080806891644205
asg24
I1
sg25
I100
sg26
g65
sbag0
(g16
g2
Ntp2717
Rp2718
(dp2719
g20
I77118
sg21
g70
sg23
F0.5122222182355997
sg24
F0.01
sg25
F0.99
sg26
g32
sbag0
(g16
g2
Ntp2720
Rp2721
(dp2722
g20
I77120
sg21
g74
sg23
I218
sg24
I1
sg25
I300
sg26
g27
sbasg75
(dp2723
g22
g2687
sg31
g2690
sg36
g2693
sg40
g2696
sg44
g2699
sg48
g2702
sg54
g2706
sg60
g2710
sg65
g2714
sg70
g2718
sg74
g2721
ssg77
Nsbag0
(g9
g2
Ntp2724
Rp2725
(dp2726
g13
I23941
sg14
(lp2727
g0
(g16
g2
Ntp2728
Rp2729
(dp2730
g20
I77990
sg21
g22
sg23
I239
sg24
I1
sg25
I300
sg26
g27
sbag0
(g16
g2
Ntp2731
Rp2732
(dp2733
g20
I77991
sg21
g31
sg23
F0.732653901005756
sg24
I-1
sg25
I1
sg26
g32
sbag0
(g16
g2
Ntp2734
Rp2735
(dp2736
g20
I77992
sg21
g36
sg23
F0.6811694175331964
sg24
I-1
sg25
I1
sg26
g32
sbag0
(g16
g2
Ntp2737
Rp2738
(dp2739
g20
I77993
sg21
g40
sg23
F0.16998193289918906
sg24
I-1
sg25
I1
sg26
g32
sbag0
(g16
g2
Ntp2740
Rp2741
(dp2742
g20
I77994
sg21
g44
sg23
F-0.27123532677504725
sg24
I-1
sg25
I1
sg26
g32
sbag0
(g16
g2
Ntp2743
Rp2744
(dp2745
g20
I77995
sg21
g48
sg23
(lp2746
F61.14108497261319
aF86.24773175329143
asg24
I0
sg25
I100
sg26
g50
sbag0
(g16
g2
Ntp2747
Rp2748
(dp2749
g20
I77996
sg21
g54
sg23
(lp2750
F24.55632838408713
aF42.823421320854465
aF65.71820503586974
asg24
I0
sg25
I100
sg26
g56
sbag0
(g16
g2
Ntp2751
Rp2752
(dp2753
g20
I77997
sg21
g60
sg23
(lp2754
F60.28420329699296
aF74.44662444080033
asg24
I0
sg25
I100
sg26
g50
sbag0
(g16
g2
Ntp2755
Rp2756
(dp2757
g20
I77998
sg21
g65
sg23
(lp2758
F13.629581796571802
aF21.929700084061054
asg24
I1
sg25
I100
sg26
g65
sbag0
(g16
g2
Ntp2759
Rp2760
(dp2761
g20
I77999
sg21
g70
sg23
F0.7886368513050686
sg24
F0.01
sg25
F0.99
sg26
g32
sbag0
(g16
g2
Ntp2762
Rp2763
(dp2764
g20
I78000
sg21
g74
sg23
I130
sg24
I1
sg25
I300
sg26
g27
sbasg75
(dp2765
g22
g2729
sg31
g2732
sg36
g2735
sg40
g2738
sg44
g2741
sg48
g2744
sg54
g2748
sg60
g2752
sg65
g2756
sg70
g2760
sg74
g2763
ssg77
Nsbag0
(g9
g2
Ntp2766
Rp2767
(dp2768
g13
I23942
sg14
(lp2769
g0
(g16
g2
Ntp2770
Rp2771
(dp2772
g20
I77990
sg21
g22
sg23
I239
sg24
I1
sg25
I300
sg26
g27
sbag0
(g16
g2
Ntp2773
Rp2774
(dp2775
g20
I77991
sg21
g31
sg23
F0.732653901005756
sg24
I-1
sg25
I1
sg26
g32
sbag0
(g16
g2
Ntp2776
Rp2777
(dp2778
g20
I77992
sg21
g36
sg23
F0.6811694175331964
sg24
I-1
sg25
I1
sg26
g32
sbag0
(g16
g2
Ntp2779
Rp2780
(dp2781
g20
I77993
sg21
g40
sg23
F0.16998193289918906
sg24
I-1
sg25
I1
sg26
g32
sbag0
(g16
g2
Ntp2782
Rp2783
(dp2784
g20
I77994
sg21
g44
sg23
F-0.27123532677504725
sg24
I-1
sg25
I1
sg26
g32
sbag0
(g16
g2
Ntp2785
Rp2786
(dp2787
g20
I77995
sg21
g48
sg23
(lp2788
F61.14108497261319
aF86.24773175329143
asg24
I0
sg25
I100
sg26
g50
sbag0
(g16
g2
Ntp2789
Rp2790
(dp2791
g20
I77996
sg21
g54
sg23
(lp2792
F24.55632838408713
aF42.823421320854465
aF65.71820503586974
asg24
I0
sg25
I100
sg26
g56
sbag0
(g16
g2
Ntp2793
Rp2794
(dp2795
g20
I77997
sg21
g60
sg23
(lp2796
F60.28420329699296
aF74.44662444080033
asg24
I0
sg25
I100
sg26
g50
sbag0
(g16
g2
Ntp2797
Rp2798
(dp2799
g20
I77998
sg21
g65
sg23
(lp2800
F13.629581796571802
aF21.929700084061054
asg24
I1
sg25
I100
sg26
g65
sbag0
(g16
g2
Ntp2801
Rp2802
(dp2803
g20
I77999
sg21
g70
sg23
F0.7886368513050686
sg24
F0.01
sg25
F0.99
sg26
g32
sbag0
(g16
g2
Ntp2804
Rp2805
(dp2806
g20
I78000
sg21
g74
sg23
I220
sg24
I1
sg25
I300
sg26
g27
sbasg75
(dp2807
g22
g2771
sg31
g2774
sg36
g2777
sg40
g2780
sg44
g2783
sg48
g2786
sg54
g2790
sg60
g2794
sg65
g2798
sg70
g2802
sg74
g2805
ssg77
Nsbag0
(g9
g2
Ntp2808
Rp2809
(dp2810
g13
I23943
sg14
(lp2811
g0
(g16
g2
Ntp2812
Rp2813
(dp2814
g20
I78705
sg21
g22
sg23
I243
sg24
I1
sg25
I300
sg26
g27
sbag0
(g16
g2
Ntp2815
Rp2816
(dp2817
g20
I78706
sg21
g31
sg23
F0.7604834422106964
sg24
I-1
sg25
I1
sg26
g32
sbag0
(g16
g2
Ntp2818
Rp2819
(dp2820
g20
I78707
sg21
g36
sg23
F0.007151638222970704
sg24
I-1
sg25
I1
sg26
g32
sbag0
(g16
g2
Ntp2821
Rp2822
(dp2823
g20
I78708
sg21
g40
sg23
F-0.5672173717890548
sg24
I-1
sg25
I1
sg26
g32
sbag0
(g16
g2
Ntp2824
Rp2825
(dp2826
g20
I78709
sg21
g44
sg23
F-0.21388332836397395
sg24
I-1
sg25
I1
sg26
g32
sbag0
(g16
g2
Ntp2827
Rp2828
(dp2829
g20
I78710
sg21
g48
sg23
(lp2830
F61.467547929365686
aF86.76506038451018
asg24
I0
sg25
I100
sg26
g50
sbag0
(g16
g2
Ntp2831
Rp2832
(dp2833
g20
I78711
sg21
g54
sg23
(lp2834
F21.466073773059502
aF43.50032746503375
aF73.07497734826451
asg24
I0
sg25
I100
sg26
g56
sbag0
(g16
g2
Ntp2835
Rp2836
(dp2837
g20
I78712
sg21
g60
sg23
(lp2838
F59.03790614155801
aF79.91729100805561
asg24
I0
sg25
I100
sg26
g50
sbag0
(g16
g2
Ntp2839
Rp2840
(dp2841
g20
I78713
sg21
g65
sg23
(lp2842
F30.730702788358556
aF98.23867128097373
asg24
I1
sg25
I100
sg26
g65
sbag0
(g16
g2
Ntp2843
Rp2844
(dp2845
g20
I78714
sg21
g70
sg23
F0.6077738695738362
sg24
F0.01
sg25
F0.99
sg26
g32
sbag0
(g16
g2
Ntp2846
Rp2847
(dp2848
g20
I78715
sg21
g74
sg23
I218
sg24
I1
sg25
I300
sg26
g27
sbasg75
(dp2849
g22
g2813
sg31
g2816
sg36
g2819
sg40
g2822
sg44
g2825
sg48
g2828
sg54
g2832
sg60
g2836
sg65
g2840
sg70
g2844
sg74
g2847
ssg77
Nsbag0
(g9
g2
Ntp2850
Rp2851
(dp2852
g13
I23944
sg14
g2811
sg75
(dp2853
g22
g2813
sg31
g2816
sg36
g2819
sg40
g2822
sg44
g2825
sg48
g2828
sg54
g2832
sg60
g2836
sg65
g2840
sg70
g2844
sg74
g2847
ssg77
Nsbag0
(g9
g2
Ntp2854
Rp2855
(dp2856
g13
I23945
sg14
(lp2857
g0
(g16
g2
Ntp2858
Rp2859
(dp2860
g20
I78716
sg21
g22
sg23
I239
sg24
I1
sg25
I300
sg26
g27
sbag0
(g16
g2
Ntp2861
Rp2862
(dp2863
g20
I78718
sg21
g31
sg23
F0.7291465698884171
sg24
I-1
sg25
I1
sg26
g32
sbag0
(g16
g2
Ntp2864
Rp2865
(dp2866
g20
I78720
sg21
g36
sg23
F0.5788057259900017
sg24
I-1
sg25
I1
sg26
g32
sbag0
(g16
g2
Ntp2867
Rp2868
(dp2869
g20
I78722
sg21
g40
sg23
F0.19840817586180337
sg24
I-1
sg25
I1
sg26
g32
sbag0
(g16
g2
Ntp2870
Rp2871
(dp2872
g20
I78724
sg21
g44
sg23
F-0.2655922402720089
sg24
I-1
sg25
I1
sg26
g32
sbag0
(g16
g2
Ntp2873
Rp2874
(dp2875
g20
I78726
sg21
g48
sg23
(lp2876
F59.73593109236004
aF85.03129548629207
asg24
I0
sg25
I100
sg26
g50
sbag0
(g16
g2
Ntp2877
Rp2878
(dp2879
g20
I78728
sg21
g54
sg23
(lp2880
F24.793603391328514
aF42.883580240604935
aF65.3030720007003
asg24
I0
sg25
I100
sg26
g56
sbag0
(g16
g2
Ntp2881
Rp2882
(dp2883
g20
I78730
sg21
g60
sg23
(lp2884
F60.37326743147139
aF74.68562040540341
asg24
I0
sg25
I100
sg26
g50
sbag0
(g16
g2
Ntp2885
Rp2886
(dp2887
g20
I78732
sg21
g65
sg23
(lp2888
F13.6142219260509
aF21.91835512315071
asg24
I1
sg25
I100
sg26
g65
sbag0
(g16
g2
Ntp2889
Rp2890
(dp2891
g20
I78734
sg21
g70
sg23
F0.7773391693976542
sg24
F0.01
sg25
F0.99
sg26
g32
sbag0
(g16
g2
Ntp2892
Rp2893
(dp2894
g20
I78736
sg21
g74
sg23
I220
sg24
I1
sg25
I300
sg26
g27
sbasg75
(dp2895
g22
g2859
sg31
g2862
sg36
g2865
sg40
g2868
sg44
g2871
sg48
g2874
sg54
g2878
sg60
g2882
sg65
g2886
sg70
g2890
sg74
g2893
ssg77
Nsbag0
(g9
g2
Ntp2896
Rp2897
(dp2898
g13
I23946
sg14
(lp2899
g0
(g16
g2
Ntp2900
Rp2901
(dp2902
g20
I78717
sg21
g22
sg23
I249
sg24
I1
sg25
I300
sg26
g27
sbag0
(g16
g2
Ntp2903
Rp2904
(dp2905
g20
I78719
sg21
g31
sg23
F0.8074230987981547
sg24
I-1
sg25
I1
sg26
g32
sbag0
(g16
g2
Ntp2906
Rp2907
(dp2908
g20
I78721
sg21
g36
sg23
F0.04594522704817238
sg24
I-1
sg25
I1
sg26
g32
sbag0
(g16
g2
Ntp2909
Rp2910
(dp2911
g20
I78723
sg21
g40
sg23
F-0.5955444144666915
sg24
I-1
sg25
I1
sg26
g32
sbag0
(g16
g2
Ntp2912
Rp2913
(dp2914
g20
I78725
sg21
g44
sg23
F-0.47952273770585774
sg24
I-1
sg25
I1
sg26
g32
sbag0
(g16
g2
Ntp2915
Rp2916
(dp2917
g20
I78727
sg21
g48
sg23
(lp2918
F71.58943173431305
aF95.17294090667151
asg24
I0
sg25
I100
sg26
g50
sbag0
(g16
g2
Ntp2919
Rp2920
(dp2921
g20
I78729
sg21
g54
sg23
(lp2922
F21.01422090218565
aF41.9253521890538
aF71.91542676163823
asg24
I0
sg25
I100
sg26
g56
sbag0
(g16
g2
Ntp2923
Rp2924
(dp2925
g20
I78731
sg21
g60
sg23
(lp2926
F61.1911675968078
aF76.88038533640874
asg24
I0
sg25
I100
sg26
g50
sbag0
(g16
g2
Ntp2927
Rp2928
(dp2929
g20
I78733
sg21
g65
sg23
(lp2930
F13.172582304696627
aF21.592155482736686
asg24
I1
sg25
I100
sg26
g65
sbag0
(g16
g2
Ntp2931
Rp2932
(dp2933
g20
I78735
sg21
g70
sg23
F0.6644036295903332
sg24
F0.01
sg25
F0.99
sg26
g32
sbag0
(g16
g2
Ntp2934
Rp2935
(dp2936
g20
I78737
sg21
g74
sg23
I218
sg24
I1
sg25
I300
sg26
g27
sbasg75
(dp2937
g22
g2901
sg31
g2904
sg36
g2907
sg40
g2910
sg44
g2913
sg48
g2916
sg54
g2920
sg60
g2924
sg65
g2928
sg70
g2932
sg74
g2935
ssg77
Nsbag0
(g9
g2
Ntp2938
Rp2939
(dp2940
g13
I23947
sg14
(lp2941
g0
(g16
g2
Ntp2942
Rp2943
(dp2944
g20
I78507
sg21
g22
sg23
I174
sg24
I1
sg25
I300
sg26
g27
sbag0
(g16
g2
Ntp2945
Rp2946
(dp2947
g20
I77991
sg21
g31
sg23
F0.732653901005756
sg24
I-1
sg25
I1
sg26
g32
sbag0
(g16
g2
Ntp2948
Rp2949
(dp2950
g20
I78509
sg21
g36
sg23
F0.9637338529799946
sg24
I-1
sg25
I1
sg26
g32
sbag0
(g16
g2
Ntp2951
Rp2952
(dp2953
g20
I78510
sg21
g40
sg23
F0.35545994997510677
sg24
I-1
sg25
I1
sg26
g32
sbag0
(g16
g2
Ntp2954
Rp2955
(dp2956
g20
I77994
sg21
g44
sg23
F-0.27123532677504725
sg24
I-1
sg25
I1
sg26
g32
sbag0
(g16
g2
Ntp2957
Rp2958
(dp2959
g20
I78512
sg21
g48
sg23
(lp2960
F68.12166869114358
aF92.27360958340965
asg24
I0
sg25
I100
sg26
g50
sbag0
(g16
g2
Ntp2961
Rp2962
(dp2963
g20
I77996
sg21
g54
sg23
(lp2964
F24.55632838408713
aF42.823421320854465
aF65.71820503586974
asg24
I0
sg25
I100
sg26
g56
sbag0
(g16
g2
Ntp2965
Rp2966
(dp2967
g20
I77997
sg21
g60
sg23
(lp2968
F15.49427062531793
aF77.66376554111942
asg24
I0
sg25
I100
sg26
g50
sbag0
(g16
g2
Ntp2969
Rp2970
(dp2971
g20
I77976
sg21
g65
sg23
(lp2972
F13.157222434175727
aF21.580810521826344
asg24
I1
sg25
I100
sg26
g65
sbag0
(g16
g2
Ntp2973
Rp2974
(dp2975
g20
I77999
sg21
g70
sg23
F0.7886368513050686
sg24
F0.01
sg25
F0.99
sg26
g32
sbag0
(g16
g2
Ntp2976
Rp2977
(dp2978
g20
I78000
sg21
g74
sg23
I220
sg24
I1
sg25
I300
sg26
g27
sbasg75
(dp2979
g22
g2943
sg31
g2946
sg36
g2949
sg40
g2952
sg44
g2955
sg48
g2958
sg54
g2962
sg60
g2966
sg65
g2970
sg70
g2974
sg74
g2977
ssg77
Nsbag0
(g9
g2
Ntp2980
Rp2981
(dp2982
g13
I23948
sg14
(lp2983
g0
(g16
g2
Ntp2984
Rp2985
(dp2986
g20
I77990
sg21
g22
sg23
I239
sg24
I1
sg25
I300
sg26
g27
sbag0
(g16
g2
Ntp2987
Rp2988
(dp2989
g20
I78508
sg21
g31
sg23
F0.22016972209066432
sg24
I-1
sg25
I1
sg26
g32
sbag0
(g16
g2
Ntp2990
Rp2991
(dp2992
g20
I77992
sg21
g36
sg23
F0.6811694175331964
sg24
I-1
sg25
I1
sg26
g32
sbag0
(g16
g2
Ntp2993
Rp2994
(dp2995
g20
I77993
sg21
g40
sg23
F0.16998193289918906
sg24
I-1
sg25
I1
sg26
g32
sbag0
(g16
g2
Ntp2996
Rp2997
(dp2998
g20
I78511
sg21
g44
sg23
F0.4172359388655389
sg24
I-1
sg25
I1
sg26
g32
sbag0
(g16
g2
Ntp2999
Rp3000
(dp3001
g20
I77995
sg21
g48
sg23
(lp3002
F61.14108497261319
aF86.24773175329143
asg24
I0
sg25
I100
sg26
g50
sbag0
(g16
g2
Ntp3003
Rp3004
(dp3005
g20
I77974
sg21
g54
sg23
(lp3006
F22.215357512494844
aF41.867267942124606
aF71.58544306915779
asg24
I0
sg25
I100
sg26
g56
sbag0
(g16
g2
Ntp3007
Rp3008
(dp3009
g20
I77997
sg21
g60
sg23
(lp3010
F60.28420329699296
aF74.44662444080033
asg24
I0
sg25
I100
sg26
g50
sbag0
(g16
g2
Ntp3011
Rp3012
(dp3013
g20
I77998
sg21
g65
sg23
(lp3014
F13.629581796571802
aF21.929700084061054
asg24
I1
sg25
I100
sg26
g65
sbag0
(g16
g2
Ntp3015
Rp3016
(dp3017
g20
I78516
sg21
g70
sg23
F0.3692790869803115
sg24
F0.01
sg25
F0.99
sg26
g32
sbag0
(g16
g2
Ntp3018
Rp3019
(dp3020
g20
I78517
sg21
g74
sg23
I219
sg24
I1
sg25
I300
sg26
g27
sbasg75
(dp3021
g22
g2985
sg31
g2988
sg36
g2991
sg40
g2994
sg44
g2997
sg48
g3000
sg54
g3004
sg60
g3008
sg65
g3012
sg70
g3016
sg74
g3019
ssg77
Nsbag0
(g9
g2
Ntp3022
Rp3023
(dp3024
g13
I23949
sg14
(lp3025
g0
(g16
g2
Ntp3026
Rp3027
(dp3028
g20
I78738
sg21
g22
sg23
I249
sg24
I1
sg25
I300
sg26
g27
sbag0
(g16
g2
Ntp3029
Rp3030
(dp3031
g20
I78740
sg21
g31
sg23
F0.7866475913897588
sg24
I-1
sg25
I1
sg26
g32
sbag0
(g16
g2
Ntp3032
Rp3033
(dp3034
g20
I78742
sg21
g36
sg23
F-0.054509347721550264
sg24
I-1
sg25
I1
sg26
g32
sbag0
(g16
g2
Ntp3035
Rp3036
(dp3037
g20
I78744
sg21
g40
sg23
F-0.09578629254136783
sg24
I-1
sg25
I1
sg26
g32
sbag0
(g16
g2
Ntp3038
Rp3039
(dp3040
g20
I78746
sg21
g44
sg23
F0.32200518941673556
sg24
I-1
sg25
I1
sg26
g32
sbag0
(g16
g2
Ntp3041
Rp3042
(dp3043
g20
I78748
sg21
g48
sg23
(lp3044
F64.25779506747295
aF88.82966503970816
asg24
I0
sg25
I100
sg26
g50
sbag0
(g16
g2
Ntp3045
Rp3046
(dp3047
g20
I78750
sg21
g54
sg23
(lp3048
F20.435720336738974
aF45.46811145171595
aF74.8208842467649
asg24
I0
sg25
I100
sg26
g56
sbag0
(g16
g2
Ntp3049
Rp3050
(dp3051
g20
I78752
sg21
g60
sg23
(lp3052
F68.77492145097375
aF83.69614591394635
asg24
I0
sg25
I100
sg26
g50
sbag0
(g16
g2
Ntp3053
Rp3054
(dp3055
g20
I78754
sg21
g65
sg23
(lp3056
F12.87986529964221
aF21.484576079514337
asg24
I1
sg25
I100
sg26
g65
sbag0
(g16
g2
Ntp3057
Rp3058
(dp3059
g20
I78756
sg21
g70
sg23
F0.7121906144143691
sg24
F0.01
sg25
F0.99
sg26
g32
sbag0
(g16
g2
Ntp3060
Rp3061
(dp3062
g20
I78758
sg21
g74
sg23
I218
sg24
I1
sg25
I300
sg26
g27
sbasg75
(dp3063
g22
g3027
sg31
g3030
sg36
g3033
sg40
g3036
sg44
g3039
sg48
g3042
sg54
g3046
sg60
g3050
sg65
g3054
sg70
g3058
sg74
g3061
ssg77
Nsbag0
(g9
g2
Ntp3064
Rp3065
(dp3066
g13
I23950
sg14
(lp3067
g0
(g16
g2
Ntp3068
Rp3069
(dp3070
g20
I78739
sg21
g22
sg23
I241
sg24
I1
sg25
I300
sg26
g27
sbag0
(g16
g2
Ntp3071
Rp3072
(dp3073
g20
I78741
sg21
g31
sg23
F0.7866475913897588
sg24
I-1
sg25
I1
sg26
g32
sbag0
(g16
g2
Ntp3074
Rp3075
(dp3076
g20
I78743
sg21
g36
sg23
F-0.10147460669591658
sg24
I-1
sg25
I1
sg26
g32
sbag0
(g16
g2
Ntp3077
Rp3078
(dp3079
g20
I78745
sg21
g40
sg23
F0.6450992157171183
sg24
I-1
sg25
I1
sg26
g32
sbag0
(g16
g2
Ntp3080
Rp3081
(dp3082
g20
I78747
sg21
g44
sg23
F0.32200518941673556
sg24
I-1
sg25
I1
sg26
g32
sbag0
(g16
g2
Ntp3083
Rp3084
(dp3085
g20
I78749
sg21
g48
sg23
(lp3086
F61.78640538524278
aF87.78944889481666
asg24
I0
sg25
I100
sg26
g50
sbag0
(g16
g2
Ntp3087
Rp3088
(dp3089
g20
I78751
sg21
g54
sg23
(lp3090
F21.313510744456778
aF41.86028038490939
aF71.36971395598766
asg24
I0
sg25
I100
sg26
g56
sbag0
(g16
g2
Ntp3091
Rp3092
(dp3093
g20
I78753
sg21
g60
sg23
(lp3094
F46.66946087228823
aF74.11305964026224
asg24
I0
sg25
I100
sg26
g50
sbag0
(g16
g2
Ntp3095
Rp3096
(dp3097
g20
I78755
sg21
g65
sg23
(lp3098
F13.243323849458841
aF21.65466120687793
asg24
I1
sg25
I100
sg26
g65
sbag0
(g16
g2
Ntp3099
Rp3100
(dp3101
g20
I78757
sg21
g70
sg23
F0.278741835671132
sg24
F0.01
sg25
F0.99
sg26
g32
sbag0
(g16
g2
Ntp3102
Rp3103
(dp3104
g20
I78759
sg21
g74
sg23
I218
sg24
I1
sg25
I300
sg26
g27
sbasg75
(dp3105
g22
g3069
sg31
g3072
sg36
g3075
sg40
g3078
sg44
g3081
sg48
g3084
sg54
g3088
sg60
g3092
sg65
g3096
sg70
g3100
sg74
g3103
ssg77
Nsbag0
(g9
g2
Ntp3106
Rp3107
(dp3108
g13
I23951
sg14
(lp3109
g0
(g16
g2
Ntp3110
Rp3111
(dp3112
g20
I78661
sg21
g22
sg23
I250
sg24
I1
sg25
I300
sg26
g27
sbag0
(g16
g2
Ntp3113
Rp3114
(dp3115
g20
I78663
sg21
g31
sg23
F0.8039157676808157
sg24
I-1
sg25
I1
sg26
g32
sbag0
(g16
g2
Ntp3116
Rp3117
(dp3118
g20
I78665
sg21
g36
sg23
F-0.056243376277843246
sg24
I-1
sg25
I1
sg26
g32
sbag0
(g16
g2
Ntp3119
Rp3120
(dp3121
g20
I78667
sg21
g40
sg23
F-0.21436904488101083
sg24
I-1
sg25
I1
sg26
g32
sbag0
(g16
g2
Ntp3122
Rp3123
(dp3124
g20
I78669
sg21
g44
sg23
F-0.605057878424808
sg24
I-1
sg25
I1
sg26
g32
sbag0
(g16
g2
Ntp3125
Rp3126
(dp3127
g20
I76648
sg21
g48
sg23
(lp3128
F69.11214601237968
aF93.14824839527718
asg24
I0
sg25
I100
sg26
g50
sbag0
(g16
g2
Ntp3129
Rp3130
(dp3131
g20
I77974
sg21
g54
sg23
(lp3132
F22.215357512494844
aF41.867267942124606
aF71.58544306915779
asg24
I0
sg25
I100
sg26
g56
sbag0
(g16
g2
Ntp3133
Rp3134
(dp3135
g20
I77997
sg21
g60
sg23
(lp3136
F32.662203743974835
aF96.48625973759012
asg24
I0
sg25
I100
sg26
g50
sbag0
(g16
g2
Ntp3137
Rp3138
(dp3139
g20
I76786
sg21
g65
sg23
(lp3140
F13.157222434175726
aF21.580810521826344
asg24
I1
sg25
I100
sg26
g65
sbag0
(g16
g2
Ntp3141
Rp3142
(dp3143
g20
I78206
sg21
g70
sg23
F0.20554119577104252
sg24
F0.01
sg25
F0.99
sg26
g32
sbag0
(g16
g2
Ntp3144
Rp3145
(dp3146
g20
I78681
sg21
g74
sg23
I216
sg24
I1
sg25
I300
sg26
g27
sbasg75
(dp3147
g22
g3111
sg31
g3114
sg36
g3117
sg40
g3120
sg44
g3123
sg48
g3126
sg54
g3130
sg60
g3134
sg65
g3138
sg70
g3142
sg74
g3145
ssg77
Nsbag0
(g9
g2
Ntp3148
Rp3149
(dp3150
g13
I23952
sg14
(lp3151
g0
(g16
g2
Ntp3152
Rp3153
(dp3154
g20
I76638
sg21
g22
sg23
I250
sg24
I1
sg25
I300
sg26
g27
sbag0
(g16
g2
Ntp3155
Rp3156
(dp3157
g20
I76595
sg21
g31
sg23
F0.8039157676808157
sg24
I-1
sg25
I1
sg26
g32
sbag0
(g16
g2
Ntp3158
Rp3159
(dp3160
g20
I77697
sg21
g36
sg23
F-0.07768176839266006
sg24
I-1
sg25
I1
sg26
g32
sbag0
(g16
g2
Ntp3161
Rp3162
(dp3163
g20
I76599
sg21
g40
sg23
F-0.5671181715040772
sg24
I-1
sg25
I1
sg26
g32
sbag0
(g16
g2
Ntp3164
Rp3165
(dp3166
g20
I78196
sg21
g44
sg23
F0.42065746226596684
sg24
I-1
sg25
I1
sg26
g32
sbag0
(g16
g2
Ntp3167
Rp3168
(dp3169
g20
I78671
sg21
g48
sg23
(lp3170
F62.76480746398621
aF88.82075915675863
asg24
I0
sg25
I100
sg26
g50
sbag0
(g16
g2
Ntp3171
Rp3172
(dp3173
g20
I78673
sg21
g54
sg23
(lp3174
F20.471903216756807
aF45.319395177914025
aF74.67862559429574
asg24
I0
sg25
I100
sg26
g56
sbag0
(g16
g2
Ntp3175
Rp3176
(dp3177
g20
I78675
sg21
g60
sg23
(lp3178
F59.09738260185334
aF74.92299331615132
asg24
I0
sg25
I100
sg26
g50
sbag0
(g16
g2
Ntp3179
Rp3180
(dp3181
g20
I78677
sg21
g65
sg23
(lp3182
F12.922103058397035
aF21.50957645317076
asg24
I1
sg25
I100
sg26
g65
sbag0
(g16
g2
Ntp3183
Rp3184
(dp3185
g20
I78679
sg21
g70
sg23
F0.48100317792429026
sg24
F0.01
sg25
F0.99
sg26
g32
sbag0
(g16
g2
Ntp3186
Rp3187
(dp3188
g20
I77713
sg21
g74
sg23
I221
sg24
I1
sg25
I300
sg26
g27
sbasg75
(dp3189
g22
g3153
sg31
g3156
sg36
g3159
sg40
g3162
sg44
g3165
sg48
g3168
sg54
g3172
sg60
g3176
sg65
g3180
sg70
g3184
sg74
g3187
ssg77
Nsbag0
(g9
g2
Ntp3190
Rp3191
(dp3192
g13
I23953
sg14
(lp3193
g0
(g16
g2
Ntp3194
Rp3195
(dp3196
g20
I78640
sg21
g22
sg23
I242
sg24
I1
sg25
I300
sg26
g27
sbag0
(g16
g2
Ntp3197
Rp3198
(dp3199
g20
I78642
sg21
g31
sg23
F0.7362135028275401
sg24
I-1
sg25
I1
sg26
g32
sbag0
(g16
g2
Ntp3200
Rp3201
(dp3202
g20
I78644
sg21
g36
sg23
F0.69475941118123
sg24
I-1
sg25
I1
sg26
g32
sbag0
(g16
g2
Ntp3203
Rp3204
(dp3205
g20
I78646
sg21
g40
sg23
F-0.9853420095369011
sg24
I-1
sg25
I1
sg26
g32
sbag0
(g16
g2
Ntp3206
Rp3207
(dp3208
g20
I78648
sg21
g44
sg23
F-0.2672055479684662
sg24
I-1
sg25
I1
sg26
g32
sbag0
(g16
g2
Ntp3209
Rp3210
(dp3211
g20
I78650
sg21
g48
sg23
(lp3212
F61.234315626607966
aF86.39546945406619
asg24
I0
sg25
I100
sg26
g50
sbag0
(g16
g2
Ntp3213
Rp3214
(dp3215
g20
I77974
sg21
g54
sg23
(lp3216
F22.215357512494844
aF41.867267942124606
aF71.58544306915779
asg24
I0
sg25
I100
sg26
g56
sbag0
(g16
g2
Ntp3217
Rp3218
(dp3219
g20
I77997
sg21
g60
sg23
(lp3220
F32.662203743974835
aF96.48625973759012
asg24
I0
sg25
I100
sg26
g50
sbag0
(g16
g2
Ntp3221
Rp3222
(dp3223
g20
I76786
sg21
g65
sg23
(lp3224
F13.157222434175726
aF21.580810521826344
asg24
I1
sg25
I100
sg26
g65
sbag0
(g16
g2
Ntp3225
Rp3226
(dp3227
g20
I78658
sg21
g70
sg23
F0.7593030132137675
sg24
F0.01
sg25
F0.99
sg26
g32
sbag0
(g16
g2
Ntp3228
Rp3229
(dp3230
g20
I78660
sg21
g74
sg23
I220
sg24
I1
sg25
I300
sg26
g27
sbasg75
(dp3231
g22
g3195
sg31
g3198
sg36
g3201
sg40
g3204
sg44
g3207
sg48
g3210
sg54
g3214
sg60
g3218
sg65
g3222
sg70
g3226
sg74
g3229
ssg77
Nsbag0
(g9
g2
Ntp3232
Rp3233
(dp3234
g13
I23954
sg14
(lp3235
g0
(g16
g2
Ntp3236
Rp3237
(dp3238
g20
I76638
sg21
g22
sg23
I250
sg24
I1
sg25
I300
sg26
g27
sbag0
(g16
g2
Ntp3239
Rp3240
(dp3241
g20
I76595
sg21
g31
sg23
F0.8039157676808157
sg24
I-1
sg25
I1
sg26
g32
sbag0
(g16
g2
Ntp3242
Rp3243
(dp3244
g20
I77697
sg21
g36
sg23
F-0.07768176839266006
sg24
I-1
sg25
I1
sg26
g32
sbag0
(g16
g2
Ntp3245
Rp3246
(dp3247
g20
I76599
sg21
g40
sg23
F-0.5671181715040772
sg24
I-1
sg25
I1
sg26
g32
sbag0
(g16
g2
Ntp3248
Rp3249
(dp3250
g20
I78196
sg21
g44
sg23
F0.42065746226596684
sg24
I-1
sg25
I1
sg26
g32
sbag0
(g16
g2
Ntp3251
Rp3252
(dp3253
g20
I76648
sg21
g48
sg23
(lp3254
F69.11214601237968
aF93.14824839527718
asg24
I0
sg25
I100
sg26
g50
sbag0
(g16
g2
Ntp3255
Rp3256
(dp3257
g20
I78652
sg21
g54
sg23
(lp3258
F22.831099381698976
aF41.00269363732783
aF70.8731208265593
asg24
I0
sg25
I100
sg26
g56
sbag0
(g16
g2
Ntp3259
Rp3260
(dp3261
g20
I78654
sg21
g60
sg23
(lp3262
F50.2750823489484
aF76.64963822759941
asg24
I0
sg25
I100
sg26
g50
sbag0
(g16
g2
Ntp3263
Rp3264
(dp3265
g20
I78656
sg21
g65
sg23
(lp3266
F12.10182432366855
aF20.394268046371405
asg24
I1
sg25
I100
sg26
g65
sbag0
(g16
g2
Ntp3267
Rp3268
(dp3269
g20
I78206
sg21
g70
sg23
F0.20554119577104252
sg24
F0.01
sg25
F0.99
sg26
g32
sbag0
(g16
g2
Ntp3270
Rp3271
(dp3272
g20
I77713
sg21
g74
sg23
I221
sg24
I1
sg25
I300
sg26
g27
sbasg75
(dp3273
g22
g3237
sg31
g3240
sg36
g3243
sg40
g3246
sg44
g3249
sg48
g3252
sg54
g3256
sg60
g3260
sg65
g3264
sg70
g3268
sg74
g3271
ssg77
Nsbag0
(g9
g2
Ntp3274
Rp3275
(dp3276
g13
I23955
sg14
(lp3277
g0
(g16
g2
Ntp3278
Rp3279
(dp3280
g20
I78760
sg21
g22
sg23
I252
sg24
I1
sg25
I300
sg26
g27
sbag0
(g16
g2
Ntp3281
Rp3282
(dp3283
g20
I78762
sg21
g31
sg23
F0.8053959852917087
sg24
I-1
sg25
I1
sg26
g32
sbag0
(g16
g2
Ntp3284
Rp3285
(dp3286
g20
I78764
sg21
g36
sg23
F-0.061959735127169145
sg24
I-1
sg25
I1
sg26
g32
sbag0
(g16
g2
Ntp3287
Rp3288
(dp3289
g20
I78766
sg21
g40
sg23
F-0.16806499450450968
sg24
I-1
sg25
I1
sg26
g32
sbag0
(g16
g2
Ntp3290
Rp3291
(dp3292
g20
I78768
sg21
g44
sg23
F-0.6121350129785971
sg24
I-1
sg25
I1
sg26
g32
sbag0
(g16
g2
Ntp3293
Rp3294
(dp3295
g20
I78770
sg21
g48
sg23
(lp3296
F62.759609907836015
aF88.82611742675299
asg24
I0
sg25
I100
sg26
g50
sbag0
(g16
g2
Ntp3297
Rp3298
(dp3299
g20
I78772
sg21
g54
sg23
(lp3300
F20.12180008976516
aF46.018319553625034
aF75.24710576613353
asg24
I0
sg25
I100
sg26
g56
sbag0
(g16
g2
Ntp3301
Rp3302
(dp3303
g20
I78774
sg21
g60
sg23
(lp3304
F58.339438288748525
aF74.40327239213397
asg24
I0
sg25
I100
sg26
g50
sbag0
(g16
g2
Ntp3305
Rp3306
(dp3307
g20
I78776
sg21
g65
sg23
(lp3308
F12.874438681037772
aF21.478114777523885
asg24
I1
sg25
I100
sg26
g65
sbag0
(g16
g2
Ntp3309
Rp3310
(dp3311
g20
I78778
sg21
g70
sg23
F0.4549397738477939
sg24
F0.01
sg25
F0.99
sg26
g32
sbag0
(g16
g2
Ntp3312
Rp3313
(dp3314
g20
I78780
sg21
g74
sg23
I218
sg24
I1
sg25
I300
sg26
g27
sbasg75
(dp3315
g22
g3279
sg31
g3282
sg36
g3285
sg40
g3288
sg44
g3291
sg48
g3294
sg54
g3298
sg60
g3302
sg65
g3306
sg70
g3310
sg74
g3313
ssg77
Nsbag0
(g9
g2
Ntp3316
Rp3317
(dp3318
g13
I23956
sg14
(lp3319
g0
(g16
g2
Ntp3320
Rp3321
(dp3322
g20
I78761
sg21
g22
sg23
I230
sg24
I1
sg25
I300
sg26
g27
sbag0
(g16
g2
Ntp3323
Rp3324
(dp3325
g20
I78763
sg21
g31
sg23
F0.7917513897092203
sg24
I-1
sg25
I1
sg26
g32
sbag0
(g16
g2
Ntp3326
Rp3327
(dp3328
g20
I78765
sg21
g36
sg23
F-0.07360131260419006
sg24
I-1
sg25
I1
sg26
g32
sbag0
(g16
g2
Ntp3329
Rp3330
(dp3331
g20
I78767
sg21
g40
sg23
F-0.589362633547316
sg24
I-1
sg25
I1
sg26
g32
sbag0
(g16
g2
Ntp3332
Rp3333
(dp3334
g20
I78769
sg21
g44
sg23
F0.13306197697862931
sg24
I-1
sg25
I1
sg26
g32
sbag0
(g16
g2
Ntp3335
Rp3336
(dp3337
g20
I78771
sg21
g48
sg23
(lp3338
F62.99553566239816
aF88.58289660238208
asg24
I0
sg25
I100
sg26
g50
sbag0
(g16
g2
Ntp3339
Rp3340
(dp3341
g20
I78773
sg21
g54
sg23
(lp3342
F21.956420374360874
aF42.3557963191256
aF72.26813992939324
asg24
I0
sg25
I100
sg26
g56
sbag0
(g16
g2
Ntp3343
Rp3344
(dp3345
g20
I78775
sg21
g60
sg23
(lp3346
F66.77314564891668
aF97.83374683312141
asg24
I0
sg25
I100
sg26
g50
sbag0
(g16
g2
Ntp3347
Rp3348
(dp3349
g20
I78777
sg21
g65
sg23
(lp3350
F13.147260092360385
aF21.781875108199362
asg24
I1
sg25
I100
sg26
g65
sbag0
(g16
g2
Ntp3351
Rp3352
(dp3353
g20
I78779
sg21
g70
sg23
F0.5456495373239129
sg24
F0.01
sg25
F0.99
sg26
g32
sbag0
(g16
g2
Ntp3354
Rp3355
(dp3356
g20
I78781
sg21
g74
sg23
I217
sg24
I1
sg25
I300
sg26
g27
sbasg75
(dp3357
g22
g3321
sg31
g3324
sg36
g3327
sg40
g3330
sg44
g3333
sg48
g3336
sg54
g3340
sg60
g3344
sg65
g3348
sg70
g3352
sg74
g3355
ssg77
Nsbag0
(g9
g2
Ntp3358
Rp3359
(dp3360
g13
I23957
sg14
(lp3361
g0
(g16
g2
Ntp3362
Rp3363
(dp3364
g20
I76923
sg21
g22
sg23
I233
sg24
I1
sg25
I300
sg26
g27
sbag0
(g16
g2
Ntp3365
Rp3366
(dp3367
g20
I76925
sg21
g31
sg23
F0.2959228978582529
sg24
I-1
sg25
I1
sg26
g32
sbag0
(g16
g2
Ntp3368
Rp3369
(dp3370
g20
I78212
sg21
g36
sg23
F-0.212926310580847
sg24
I-1
sg25
I1
sg26
g32
sbag0
(g16
g2
Ntp3371
Rp3372
(dp3373
g20
I78213
sg21
g40
sg23
F0.8264133587141537
sg24
I-1
sg25
I1
sg26
g32
sbag0
(g16
g2
Ntp3374
Rp3375
(dp3376
g20
I78214
sg21
g44
sg23
F0.2637326506867066
sg24
I-1
sg25
I1
sg26
g32
sbag0
(g16
g2
Ntp3377
Rp3378
(dp3379
g20
I78727
sg21
g48
sg23
(lp3380
F71.12608345391845
aF95.56800598913851
asg24
I0
sg25
I100
sg26
g50
sbag0
(g16
g2
Ntp3381
Rp3382
(dp3383
g20
I78729
sg21
g54
sg23
(lp3384
F21.01422090218565
aF41.9253521890538
aF71.91542676163823
asg24
I0
sg25
I100
sg26
g56
sbag0
(g16
g2
Ntp3385
Rp3386
(dp3387
g20
I78731
sg21
g60
sg23
(lp3388
F61.1911675968078
aF76.88038533640874
asg24
I0
sg25
I100
sg26
g50
sbag0
(g16
g2
Ntp3389
Rp3390
(dp3391
g20
I78733
sg21
g65
sg23
(lp3392
F13.172582304696627
aF21.592155482736686
asg24
I1
sg25
I100
sg26
g65
sbag0
(g16
g2
Ntp3393
Rp3394
(dp3395
g20
I78735
sg21
g70
sg23
F0.6644036295903332
sg24
F0.01
sg25
F0.99
sg26
g32
sbag0
(g16
g2
Ntp3396
Rp3397
(dp3398
g20
I78737
sg21
g74
sg23
I218
sg24
I1
sg25
I300
sg26
g27
sbasg75
(dp3399
g22
g3363
sg31
g3366
sg36
g3369
sg40
g3372
sg44
g3375
sg48
g3378
sg54
g3382
sg60
g3386
sg65
g3390
sg70
g3394
sg74
g3397
ssg77
Nsbag0
(g9
g2
Ntp3400
Rp3401
(dp3402
g13
I23958
sg14
(lp3403
g0
(g16
g2
Ntp3404
Rp3405
(dp3406
g20
I78717
sg21
g22
sg23
I249
sg24
I1
sg25
I300
sg26
g27
sbag0
(g16
g2
Ntp3407
Rp3408
(dp3409
g20
I78719
sg21
g31
sg23
F0.8074230987981547
sg24
I-1
sg25
I1
sg26
g32
sbag0
(g16
g2
Ntp3410
Rp3411
(dp3412
g20
I78721
sg21
g36
sg23
F0.04594522704817238
sg24
I-1
sg25
I1
sg26
g32
sbag0
(g16
g2
Ntp3413
Rp3414
(dp3415
g20
I78723
sg21
g40
sg23
F-0.5955444144666915
sg24
I-1
sg25
I1
sg26
g32
sbag0
(g16
g2
Ntp3416
Rp3417
(dp3418
g20
I78725
sg21
g44
sg23
F-0.47952273770585774
sg24
I-1
sg25
I1
sg26
g32
sbag0
(g16
g2
Ntp3419
Rp3420
(dp3421
g20
I78215
sg21
g48
sg23
(lp3422
F61.85556010424398
aF87.81855634627108
asg24
I0
sg25
I100
sg26
g50
sbag0
(g16
g2
Ntp3423
Rp3424
(dp3425
g20
I78216
sg21
g54
sg23
(lp3426
F21.27732786443895
aF42.00899665871131
aF71.51197260845683
asg24
I0
sg25
I100
sg26
g56
sbag0
(g16
g2
Ntp3427
Rp3428
(dp3429
g20
I78217
sg21
g60
sg23
(lp3430
F49.1098017265361
aF75.17098814893139
asg24
I0
sg25
I100
sg26
g50
sbag0
(g16
g2
Ntp3431
Rp3432
(dp3433
g20
I78218
sg21
g65
sg23
(lp3434
F13.24267423817685
aF21.654357212880015
asg24
I1
sg25
I100
sg26
g65
sbag0
(g16
g2
Ntp3435
Rp3436
(dp3437
g20
I78219
sg21
g70
sg23
F0.40353343339809217
sg24
F0.01
sg25
F0.99
sg26
g32
sbag0
(g16
g2
Ntp3438
Rp3439
(dp3440
g20
I78220
sg21
g74
sg23
I220
sg24
I1
sg25
I300
sg26
g27
sbasg75
(dp3441
g22
g3405
sg31
g3408
sg36
g3411
sg40
g3414
sg44
g3417
sg48
g3420
sg54
g3424
sg60
g3428
sg65
g3432
sg70
g3436
sg74
g3439
ssg77
Nsbag0
(g9
g2
Ntp3442
Rp3443
(dp3444
g13
I23959
sg14
(lp3445
g0
(g16
g2
Ntp3446
Rp3447
(dp3448
g20
I78782
sg21
g22
sg23
I132
sg24
I1
sg25
I300
sg26
g27
sbag0
(g16
g2
Ntp3449
Rp3450
(dp3451
g20
I78783
sg21
g31
sg23
F0.7790485539343249
sg24
I-1
sg25
I1
sg26
g32
sbag0
(g16
g2
Ntp3452
Rp3453
(dp3454
g20
I78784
sg21
g36
sg23
F0.4574494924784397
sg24
I-1
sg25
I1
sg26
g32
sbag0
(g16
g2
Ntp3455
Rp3456
(dp3457
g20
I78785
sg21
g40
sg23
F0.5273120873401369
sg24
I-1
sg25
I1
sg26
g32
sbag0
(g16
g2
Ntp3458
Rp3459
(dp3460
g20
I78786
sg21
g44
sg23
F0.40562856329592617
sg24
I-1
sg25
I1
sg26
g32
sbag0
(g16
g2
Ntp3461
Rp3462
(dp3463
g20
I78787
sg21
g48
sg23
(lp3464
F75.49925494383751
aF92.47801975275004
asg24
I0
sg25
I100
sg26
g50
sbag0
(g16
g2
Ntp3465
Rp3466
(dp3467
g20
I78788
sg21
g54
sg23
(lp3468
F20.546348282711104
aF45.1944138353759
aF74.47612612250558
asg24
I0
sg25
I100
sg26
g56
sbag0
(g16
g2
Ntp3469
Rp3470
(dp3471
g20
I78789
sg21
g60
sg23
(lp3472
F59.93381978766728
aF79.07170476611205
asg24
I0
sg25
I100
sg26
g50
sbag0
(g16
g2
Ntp3473
Rp3474
(dp3475
g20
I78790
sg21
g65
sg23
(lp3476
F13.033864101718251
aF21.566229571598825
asg24
I1
sg25
I100
sg26
g65
sbag0
(g16
g2
Ntp3477
Rp3478
(dp3479
g20
I78791
sg21
g70
sg23
F0.4430814091623729
sg24
F0.01
sg25
F0.99
sg26
g32
sbag0
(g16
g2
Ntp3480
Rp3481
(dp3482
g20
I78792
sg21
g74
sg23
I218
sg24
I1
sg25
I300
sg26
g27
sbasg75
(dp3483
g22
g3447
sg31
g3450
sg36
g3453
sg40
g3456
sg44
g3459
sg48
g3462
sg54
g3466
sg60
g3470
sg65
g3474
sg70
g3478
sg74
g3481
ssg77
Nsbag0
(g9
g2
Ntp3484
Rp3485
(dp3486
g13
I23960
sg14
g3445
sg75
(dp3487
g22
g3447
sg31
g3450
sg36
g3453
sg40
g3456
sg44
g3459
sg48
g3462
sg54
g3466
sg60
g3470
sg65
g3474
sg70
g3478
sg74
g3481
ssg77
Nsbag0
(g9
g2
Ntp3488
Rp3489
(dp3490
g13
I23961
sg14
(lp3491
g0
(g16
g2
Ntp3492
Rp3493
(dp3494
g20
I78793
sg21
g22
sg23
I250
sg24
I1
sg25
I300
sg26
g27
sbag0
(g16
g2
Ntp3495
Rp3496
(dp3497
g20
I78795
sg21
g31
sg23
F0.8073912699019012
sg24
I-1
sg25
I1
sg26
g32
sbag0
(g16
g2
Ntp3498
Rp3499
(dp3500
g20
I78797
sg21
g36
sg23
F-0.08817692909609993
sg24
I-1
sg25
I1
sg26
g32
sbag0
(g16
g2
Ntp3501
Rp3502
(dp3503
g20
I78799
sg21
g40
sg23
F-0.048632829203473185
sg24
I-1
sg25
I1
sg26
g32
sbag0
(g16
g2
Ntp3504
Rp3505
(dp3506
g20
I78801
sg21
g44
sg23
F0.44618006507787067
sg24
I-1
sg25
I1
sg26
g32
sbag0
(g16
g2
Ntp3507
Rp3508
(dp3509
g20
I78803
sg21
g48
sg23
(lp3510
F62.45669716581368
aF89.79550756306327
asg24
I0
sg25
I100
sg26
g50
sbag0
(g16
g2
Ntp3511
Rp3512
(dp3513
g20
I78805
sg21
g54
sg23
(lp3514
F20.642601885130844
aF44.631790921059434
aF74.02568663469654
asg24
I0
sg25
I100
sg26
g56
sbag0
(g16
g2
Ntp3515
Rp3516
(dp3517
g20
I78807
sg21
g60
sg23
(lp3518
F66.24286392581115
aF82.55668815568065
asg24
I0
sg25
I100
sg26
g50
sbag0
(g16
g2
Ntp3519
Rp3520
(dp3521
g20
I78809
sg21
g65
sg23
(lp3522
F12.893910504763152
aF21.49273465769343
asg24
I1
sg25
I100
sg26
g65
sbag0
(g16
g2
Ntp3523
Rp3524
(dp3525
g20
I78811
sg21
g70
sg23
F0.4406939114569683
sg24
F0.01
sg25
F0.99
sg26
g32
sbag0
(g16
g2
Ntp3526
Rp3527
(dp3528
g20
I78813
sg21
g74
sg23
I218
sg24
I1
sg25
I300
sg26
g27
sbasg75
(dp3529
g22
g3493
sg31
g3496
sg36
g3499
sg40
g3502
sg44
g3505
sg48
g3508
sg54
g3512
sg60
g3516
sg65
g3520
sg70
g3524
sg74
g3527
ssg77
Nsbag0
(g9
g2
Ntp3530
Rp3531
(dp3532
g13
I23962
sg14
(lp3533
g0
(g16
g2
Ntp3534
Rp3535
(dp3536
g20
I78794
sg21
g22
sg23
I238
sg24
I1
sg25
I300
sg26
g27
sbag0
(g16
g2
Ntp3537
Rp3538
(dp3539
g20
I78796
sg21
g31
sg23
F0.782755128714053
sg24
I-1
sg25
I1
sg26
g32
sbag0
(g16
g2
Ntp3540
Rp3541
(dp3542
g20
I78798
sg21
g36
sg23
F-0.5813758935229264
sg24
I-1
sg25
I1
sg26
g32
sbag0
(g16
g2
Ntp3543
Rp3544
(dp3545
g20
I78800
sg21
g40
sg23
F0.814452420521174
sg24
I-1
sg25
I1
sg26
g32
sbag0
(g16
g2
Ntp3546
Rp3547
(dp3548
g20
I78802
sg21
g44
sg23
F0.3368758266045749
sg24
I-1
sg25
I1
sg26
g32
sbag0
(g16
g2
Ntp3549
Rp3550
(dp3551
g20
I78804
sg21
g48
sg23
(lp3552
F61.790159717384306
aF88.10754460783647
asg24
I0
sg25
I100
sg26
g50
sbag0
(g16
g2
Ntp3553
Rp3554
(dp3555
g20
I78806
sg21
g54
sg23
(lp3556
F21.19263115546853
aF42.416176286913014
aF71.9217713379676
asg24
I0
sg25
I100
sg26
g56
sbag0
(g16
g2
Ntp3557
Rp3558
(dp3559
g20
I78808
sg21
g60
sg23
(lp3560
F61.62608649798081
aF78.45271888279538
asg24
I0
sg25
I100
sg26
g50
sbag0
(g16
g2
Ntp3561
Rp3562
(dp3563
g20
I78810
sg21
g65
sg23
(lp3564
F14.150494454281718
aF22.22953994836429
asg24
I1
sg25
I100
sg26
g65
sbag0
(g16
g2
Ntp3565
Rp3566
(dp3567
g20
I78812
sg21
g70
sg23
F0.8443246434346076
sg24
F0.01
sg25
F0.99
sg26
g32
sbag0
(g16
g2
Ntp3568
Rp3569
(dp3570
g20
I78814
sg21
g74
sg23
I214
sg24
I1
sg25
I300
sg26
g27
sbasg75
(dp3571
g22
g3535
sg31
g3538
sg36
g3541
sg40
g3544
sg44
g3547
sg48
g3550
sg54
g3554
sg60
g3558
sg65
g3562
sg70
g3566
sg74
g3569
ssg77
Nsbag0
(g9
g2
Ntp3572
Rp3573
(dp3574
g13
I23963
sg14
(lp3575
g0
(g16
g2
Ntp3576
Rp3577
(dp3578
g20
I77968
sg21
g22
sg23
I250
sg24
I1
sg25
I300
sg26
g27
sbag0
(g16
g2
Ntp3579
Rp3580
(dp3581
g20
I77102
sg21
g31
sg23
F-0.90403765767946
sg24
I-1
sg25
I1
sg26
g32
sbag0
(g16
g2
Ntp3582
Rp3583
(dp3584
g20
I77970
sg21
g36
sg23
F-0.056418464495022295
sg24
I-1
sg25
I1
sg26
g32
sbag0
(g16
g2
Ntp3585
Rp3586
(dp3587
g20
I77971
sg21
g40
sg23
F-0.04674548348124842
sg24
I-1
sg25
I1
sg26
g32
sbag0
(g16
g2
Ntp3588
Rp3589
(dp3590
g20
I76542
sg21
g44
sg23
F0.32200518941673556
sg24
I-1
sg25
I1
sg26
g32
sbag0
(g16
g2
Ntp3591
Rp3592
(dp3593
g20
I77110
sg21
g48
sg23
(lp3594
F64.18864034847176
aF88.80055758825374
asg24
I0
sg25
I100
sg26
g50
sbag0
(g16
g2
Ntp3595
Rp3596
(dp3597
g20
I78711
sg21
g54
sg23
(lp3598
F21.466073773059502
aF43.50032746503375
aF73.07497734826451
asg24
I0
sg25
I100
sg26
g56
sbag0
(g16
g2
Ntp3599
Rp3600
(dp3601
g20
I78712
sg21
g60
sg23
(lp3602
F99.03814886963983
aF99.22344692549844
asg24
I0
sg25
I100
sg26
g50
sbag0
(g16
g2
Ntp3603
Rp3604
(dp3605
g20
I78713
sg21
g65
sg23
(lp3606
F30.730702788358556
aF98.23867128097373
asg24
I1
sg25
I100
sg26
g65
sbag0
(g16
g2
Ntp3607
Rp3608
(dp3609
g20
I78714
sg21
g70
sg23
F0.6077738695738362
sg24
F0.01
sg25
F0.99
sg26
g32
sbag0
(g16
g2
Ntp3610
Rp3611
(dp3612
g20
I78715
sg21
g74
sg23
I218
sg24
I1
sg25
I300
sg26
g27
sbasg75
(dp3613
g22
g3577
sg31
g3580
sg36
g3583
sg40
g3586
sg44
g3589
sg48
g3592
sg54
g3596
sg60
g3600
sg65
g3604
sg70
g3608
sg74
g3611
ssg77
Nsbag0
(g9
g2
Ntp3614
Rp3615
(dp3616
g13
I23964
sg14
(lp3617
g0
(g16
g2
Ntp3618
Rp3619
(dp3620
g20
I78705
sg21
g22
sg23
I243
sg24
I1
sg25
I300
sg26
g27
sbag0
(g16
g2
Ntp3621
Rp3622
(dp3623
g20
I78706
sg21
g31
sg23
F0.7604834422106964
sg24
I-1
sg25
I1
sg26
g32
sbag0
(g16
g2
Ntp3624
Rp3625
(dp3626
g20
I78707
sg21
g36
sg23
F0.007151638222970704
sg24
I-1
sg25
I1
sg26
g32
sbag0
(g16
g2
Ntp3627
Rp3628
(dp3629
g20
I78708
sg21
g40
sg23
F-0.5672173717890548
sg24
I-1
sg25
I1
sg26
g32
sbag0
(g16
g2
Ntp3630
Rp3631
(dp3632
g20
I78709
sg21
g44
sg23
F-0.21388332836397395
sg24
I-1
sg25
I1
sg26
g32
sbag0
(g16
g2
Ntp3633
Rp3634
(dp3635
g20
I78710
sg21
g48
sg23
(lp3636
F61.467547929365686
aF86.76506038451018
asg24
I0
sg25
I100
sg26
g50
sbag0
(g16
g2
Ntp3637
Rp3638
(dp3639
g20
I75869
sg21
g54
sg23
(lp3640
F20.471903216756807
aF45.319395177914025
aF74.67862559429574
asg24
I0
sg25
I100
sg26
g56
sbag0
(g16
g2
Ntp3641
Rp3642
(dp3643
g20
I76652
sg21
g60
sg23
(lp3644
F66.33458059672587
aF82.6382174052772
asg24
I0
sg25
I100
sg26
g50
sbag0
(g16
g2
Ntp3645
Rp3646
(dp3647
g20
I76939
sg21
g65
sg23
(lp3648
F12.880514910924202
aF21.48488007351225
asg24
I1
sg25
I100
sg26
g65
sbag0
(g16
g2
Ntp3649
Rp3650
(dp3651
g20
I76788
sg21
g70
sg23
F0.6900364716916536
sg24
F0.01
sg25
F0.99
sg26
g32
sbag0
(g16
g2
Ntp3652
Rp3653
(dp3654
g20
I76790
sg21
g74
sg23
I219
sg24
I1
sg25
I300
sg26
g27
sbasg75
(dp3655
g22
g3619
sg31
g3622
sg36
g3625
sg40
g3628
sg44
g3631
sg48
g3634
sg54
g3638
sg60
g3642
sg65
g3646
sg70
g3650
sg74
g3653
ssg77
Nsbag0
(g9
g2
Ntp3656
Rp3657
(dp3658
g13
I23965
sg14
(lp3659
g0
(g16
g2
Ntp3660
Rp3661
(dp3662
g20
I78815
sg21
g22
sg23
I242
sg24
I1
sg25
I300
sg26
g27
sbag0
(g16
g2
Ntp3663
Rp3664
(dp3665
g20
I78816
sg21
g31
sg23
F0.7206157256141936
sg24
I-1
sg25
I1
sg26
g32
sbag0
(g16
g2
Ntp3666
Rp3667
(dp3668
g20
I78817
sg21
g36
sg23
F-0.08016943891414861
sg24
I-1
sg25
I1
sg26
g32
sbag0
(g16
g2
Ntp3669
Rp3670
(dp3671
g20
I78818
sg21
g40
sg23
F0.9154727427746912
sg24
I-1
sg25
I1
sg26
g32
sbag0
(g16
g2
Ntp3672
Rp3673
(dp3674
g20
I78819
sg21
g44
sg23
F0.7550974909474553
sg24
I-1
sg25
I1
sg26
g32
sbag0
(g16
g2
Ntp3675
Rp3676
(dp3677
g20
I78820
sg21
g48
sg23
(lp3678
F62.691349543095356
aF88.53273804626073
asg24
I0
sg25
I100
sg26
g50
sbag0
(g16
g2
Ntp3679
Rp3680
(dp3681
g20
I78821
sg21
g54
sg23
(lp3682
F20.524589043008824
aF45.21311116473106
aF74.50515580482747
asg24
I0
sg25
I100
sg26
g56
sbag0
(g16
g2
Ntp3683
Rp3684
(dp3685
g20
I78822
sg21
g60
sg23
(lp3686
F66.26668684084461
aF82.56408431292704
asg24
I0
sg25
I100
sg26
g50
sbag0
(g16
g2
Ntp3687
Rp3688
(dp3689
g20
I78823
sg21
g65
sg23
(lp3690
F12.8805149109242
aF21.48488007351225
asg24
I1
sg25
I100
sg26
g65
sbag0
(g16
g2
Ntp3691
Rp3692
(dp3693
g20
I78824
sg21
g70
sg23
F0.7924009113583678
sg24
F0.01
sg25
F0.99
sg26
g32
sbag0
(g16
g2
Ntp3694
Rp3695
(dp3696
g20
I78825
sg21
g74
sg23
I223
sg24
I1
sg25
I300
sg26
g27
sbasg75
(dp3697
g22
g3661
sg31
g3664
sg36
g3667
sg40
g3670
sg44
g3673
sg48
g3676
sg54
g3680
sg60
g3684
sg65
g3688
sg70
g3692
sg74
g3695
ssg77
Nsbag0
(g9
g2
Ntp3698
Rp3699
(dp3700
g13
I23966
sg14
g3659
sg75
(dp3701
g22
g3661
sg31
g3664
sg36
g3667
sg40
g3670
sg44
g3673
sg48
g3676
sg54
g3680
sg60
g3684
sg65
g3688
sg70
g3692
sg74
g3695
ssg77
Nsbag0
(g9
g2
Ntp3702
Rp3703
(dp3704
g13
I23967
sg14
(lp3705
g0
(g16
g2
Ntp3706
Rp3707
(dp3708
g20
I78826
sg21
g22
sg23
I130
sg24
I1
sg25
I300
sg26
g27
sbag0
(g16
g2
Ntp3709
Rp3710
(dp3711
g20
I78828
sg21
g31
sg23
F0.752054761565411
sg24
I-1
sg25
I1
sg26
g32
sbag0
(g16
g2
Ntp3712
Rp3713
(dp3714
g20
I78830
sg21
g36
sg23
F-0.32732969032734105
sg24
I-1
sg25
I1
sg26
g32
sbag0
(g16
g2
Ntp3715
Rp3716
(dp3717
g20
I78832
sg21
g40
sg23
F-0.15506566506334513
sg24
I-1
sg25
I1
sg26
g32
sbag0
(g16
g2
Ntp3718
Rp3719
(dp3720
g20
I78834
sg21
g44
sg23
F0.301691782906337
sg24
I-1
sg25
I1
sg26
g32
sbag0
(g16
g2
Ntp3721
Rp3722
(dp3723
g20
I78836
sg21
g48
sg23
(lp3724
F68.32850212163999
aF90.16629553281487
asg24
I0
sg25
I100
sg26
g50
sbag0
(g16
g2
Ntp3725
Rp3726
(dp3727
g20
I78838
sg21
g54
sg23
(lp3728
F21.06801585994866
aF44.93910799765075
aF73.36632503895042
asg24
I0
sg25
I100
sg26
g56
sbag0
(g16
g2
Ntp3729
Rp3730
(dp3731
g20
I78840
sg21
g60
sg23
(lp3732
F68.70902545442725
aF83.40347429847577
asg24
I0
sg25
I100
sg26
g50
sbag0
(g16
g2
Ntp3733
Rp3734
(dp3735
g20
I78842
sg21
g65
sg23
(lp3736
F11.723981313991324
aF20.798350036120496
asg24
I1
sg25
I100
sg26
g65
sbag0
(g16
g2
Ntp3737
Rp3738
(dp3739
g20
I78844
sg21
g70
sg23
F0.7304824857438781
sg24
F0.01
sg25
F0.99
sg26
g32
sbag0
(g16
g2
Ntp3740
Rp3741
(dp3742
g20
I78846
sg21
g74
sg23
I218
sg24
I1
sg25
I300
sg26
g27
sbasg75
(dp3743
g22
g3707
sg31
g3710
sg36
g3713
sg40
g3716
sg44
g3719
sg48
g3722
sg54
g3726
sg60
g3730
sg65
g3734
sg70
g3738
sg74
g3741
ssg77
Nsbag0
(g9
g2
Ntp3744
Rp3745
(dp3746
g13
I23968
sg14
(lp3747
g0
(g16
g2
Ntp3748
Rp3749
(dp3750
g20
I78827
sg21
g22
sg23
I245
sg24
I1
sg25
I300
sg26
g27
sbag0
(g16
g2
Ntp3751
Rp3752
(dp3753
g20
I78829
sg21
g31
sg23
F0.4907995049107145
sg24
I-1
sg25
I1
sg26
g32
sbag0
(g16
g2
Ntp3754
Rp3755
(dp3756
g20
I78831
sg21
g36
sg23
F0.8990837772708118
sg24
I-1
sg25
I1
sg26
g32
sbag0
(g16
g2
Ntp3757
Rp3758
(dp3759
g20
I78833
sg21
g40
sg23
F-0.5696565328254398
sg24
I-1
sg25
I1
sg26
g32
sbag0
(g16
g2
Ntp3760
Rp3761
(dp3762
g20
I78835
sg21
g44
sg23
F0.3256486213114916
sg24
I-1
sg25
I1
sg26
g32
sbag0
(g16
g2
Ntp3763
Rp3764
(dp3765
g20
I78837
sg21
g48
sg23
(lp3766
F75.3307562096247
aF92.46550945559045
asg24
I0
sg25
I100
sg26
g50
sbag0
(g16
g2
Ntp3767
Rp3768
(dp3769
g20
I78839
sg21
g54
sg23
(lp3770
F22.593588445029305
aF43.662753607478685
aF69.8568337182559
asg24
I0
sg25
I100
sg26
g56
sbag0
(g16
g2
Ntp3771
Rp3772
(dp3773
g20
I78841
sg21
g60
sg23
(lp3774
F69.73569180449306
aF87.96332793102584
asg24
I0
sg25
I100
sg26
g50
sbag0
(g16
g2
Ntp3775
Rp3776
(dp3777
g20
I78843
sg21
g65
sg23
(lp3778
F14.722373438202178
aF22.30204355040136
asg24
I1
sg25
I100
sg26
g65
sbag0
(g16
g2
Ntp3779
Rp3780
(dp3781
g20
I78845
sg21
g70
sg23
F0.5966638186481329
sg24
F0.01
sg25
F0.99
sg26
g32
sbag0
(g16
g2
Ntp3782
Rp3783
(dp3784
g20
I78847
sg21
g74
sg23
I218
sg24
I1
sg25
I300
sg26
g27
sbasg75
(dp3785
g22
g3749
sg31
g3752
sg36
g3755
sg40
g3758
sg44
g3761
sg48
g3764
sg54
g3768
sg60
g3772
sg65
g3776
sg70
g3780
sg74
g3783
ssg77
Nsbag0
(g9
g2
Ntp3786
Rp3787
(dp3788
g13
I23969
sg14
(lp3789
g0
(g16
g2
Ntp3790
Rp3791
(dp3792
g20
I78848
sg21
g22
sg23
I235
sg24
I1
sg25
I300
sg26
g27
sbag0
(g16
g2
Ntp3793
Rp3794
(dp3795
g20
I78850
sg21
g31
sg23
F0.7132350689864027
sg24
I-1
sg25
I1
sg26
g32
sbag0
(g16
g2
Ntp3796
Rp3797
(dp3798
g20
I78852
sg21
g36
sg23
F-0.06905682569965052
sg24
I-1
sg25
I1
sg26
g32
sbag0
(g16
g2
Ntp3799
Rp3800
(dp3801
g20
I78854
sg21
g40
sg23
F0.5528190990102461
sg24
I-1
sg25
I1
sg26
g32
sbag0
(g16
g2
Ntp3802
Rp3803
(dp3804
g20
I78856
sg21
g44
sg23
F0.3231416448514654
sg24
I-1
sg25
I1
sg26
g32
sbag0
(g16
g2
Ntp3805
Rp3806
(dp3807
g20
I78858
sg21
g48
sg23
(lp3808
F61.86377550649697
aF87.83055173081549
asg24
I0
sg25
I100
sg26
g50
sbag0
(g16
g2
Ntp3809
Rp3810
(dp3811
g20
I78860
sg21
g54
sg23
(lp3812
F21.310257761115903
aF41.890097098612664
aF71.42506426191899
asg24
I0
sg25
I100
sg26
g56
sbag0
(g16
g2
Ntp3813
Rp3814
(dp3815
g20
I78862
sg21
g60
sg23
(lp3816
F48.05012632043805
aF74.62168229377525
asg24
I0
sg25
I100
sg26
g50
sbag0
(g16
g2
Ntp3817
Rp3818
(dp3819
g20
I78864
sg21
g65
sg23
(lp3820
F13.338802051096927
aF21.578943979259286
asg24
I1
sg25
I100
sg26
g65
sbag0
(g16
g2
Ntp3821
Rp3822
(dp3823
g20
I78866
sg21
g70
sg23
F0.39745269288516666
sg24
F0.01
sg25
F0.99
sg26
g32
sbag0
(g16
g2
Ntp3824
Rp3825
(dp3826
g20
I78868
sg21
g74
sg23
I219
sg24
I1
sg25
I300
sg26
g27
sbasg75
(dp3827
g22
g3791
sg31
g3794
sg36
g3797
sg40
g3800
sg44
g3803
sg48
g3806
sg54
g3810
sg60
g3814
sg65
g3818
sg70
g3822
sg74
g3825
ssg77
Nsbag0
(g9
g2
Ntp3828
Rp3829
(dp3830
g13
I23970
sg14
(lp3831
g0
(g16
g2
Ntp3832
Rp3833
(dp3834
g20
I78849
sg21
g22
sg23
I247
sg24
I1
sg25
I300
sg26
g27
sbag0
(g16
g2
Ntp3835
Rp3836
(dp3837
g20
I78851
sg21
g31
sg23
F0.8380317895873449
sg24
I-1
sg25
I1
sg26
g32
sbag0
(g16
g2
Ntp3838
Rp3839
(dp3840
g20
I78853
sg21
g36
sg23
F-0.06159515609182849
sg24
I-1
sg25
I1
sg26
g32
sbag0
(g16
g2
Ntp3841
Rp3842
(dp3843
g20
I78855
sg21
g40
sg23
F-0.0072486109068682775
sg24
I-1
sg25
I1
sg26
g32
sbag0
(g16
g2
Ntp3844
Rp3845
(dp3846
g20
I78857
sg21
g44
sg23
F0.4136473349844612
sg24
I-1
sg25
I1
sg26
g32
sbag0
(g16
g2
Ntp3847
Rp3848
(dp3849
g20
I78859
sg21
g48
sg23
(lp3850
F62.31004955192136
aF88.48216057749165
asg24
I0
sg25
I100
sg26
g50
sbag0
(g16
g2
Ntp3851
Rp3852
(dp3853
g20
I78861
sg21
g54
sg23
(lp3854
F19.657349955928044
aF47.85823033779122
aF75.787406656661
asg24
I0
sg25
I100
sg26
g56
sbag0
(g16
g2
Ntp3855
Rp3856
(dp3857
g20
I78863
sg21
g60
sg23
(lp3858
F65.67587324500857
aF83.75837257784788
asg24
I0
sg25
I100
sg26
g50
sbag0
(g16
g2
Ntp3859
Rp3860
(dp3861
g20
I78865
sg21
g65
sg23
(lp3862
F13.548150641769421
aF21.414707909624777
asg24
I1
sg25
I100
sg26
g65
sbag0
(g16
g2
Ntp3863
Rp3864
(dp3865
g20
I78867
sg21
g70
sg23
F0.49545895503967613
sg24
F0.01
sg25
F0.99
sg26
g32
sbag0
(g16
g2
Ntp3866
Rp3867
(dp3868
g20
I78869
sg21
g74
sg23
I213
sg24
I1
sg25
I300
sg26
g27
sbasg75
(dp3869
g22
g3833
sg31
g3836
sg36
g3839
sg40
g3842
sg44
g3845
sg48
g3848
sg54
g3852
sg60
g3856
sg65
g3860
sg70
g3864
sg74
g3867
ssg77
Nsbag0
(g9
g2
Ntp3870
Rp3871
(dp3872
g13
I23971
sg14
(lp3873
g0
(g16
g2
Ntp3874
Rp3875
(dp3876
g20
I78870
sg21
g22
sg23
I240
sg24
I1
sg25
I300
sg26
g27
sbag0
(g16
g2
Ntp3877
Rp3878
(dp3879
g20
I78872
sg21
g31
sg23
F0.5846702060836297
sg24
I-1
sg25
I1
sg26
g32
sbag0
(g16
g2
Ntp3880
Rp3881
(dp3882
g20
I78874
sg21
g36
sg23
F-0.09785927702553751
sg24
I-1
sg25
I1
sg26
g32
sbag0
(g16
g2
Ntp3883
Rp3884
(dp3885
g20
I78876
sg21
g40
sg23
F0.7454551904310446
sg24
I-1
sg25
I1
sg26
g32
sbag0
(g16
g2
Ntp3886
Rp3887
(dp3888
g20
I78878
sg21
g44
sg23
F0.2615344746057389
sg24
I-1
sg25
I1
sg26
g32
sbag0
(g16
g2
Ntp3889
Rp3890
(dp3891
g20
I78880
sg21
g48
sg23
(lp3892
F47.86275367882731
aF81.51929966373855
asg24
I0
sg25
I100
sg26
g50
sbag0
(g16
g2
Ntp3893
Rp3894
(dp3895
g20
I78882
sg21
g54
sg23
(lp3896
F22.21535751249484
aF41.8672679421246
aF71.58544306915779
asg24
I0
sg25
I100
sg26
g56
sbag0
(g16
g2
Ntp3897
Rp3898
(dp3899
g20
I78884
sg21
g60
sg23
(lp3900
F62.46880858301782
aF74.75567162011785
asg24
I0
sg25
I100
sg26
g50
sbag0
(g16
g2
Ntp3901
Rp3902
(dp3903
g20
I78886
sg21
g65
sg23
(lp3904
F14.941773232821863
aF23.510048685117326
asg24
I1
sg25
I100
sg26
g65
sbag0
(g16
g2
Ntp3905
Rp3906
(dp3907
g20
I78888
sg21
g70
sg23
F0.5167726814348946
sg24
F0.01
sg25
F0.99
sg26
g32
sbag0
(g16
g2
Ntp3908
Rp3909
(dp3910
g20
I78890
sg21
g74
sg23
I217
sg24
I1
sg25
I300
sg26
g27
sbasg75
(dp3911
g22
g3875
sg31
g3878
sg36
g3881
sg40
g3884
sg44
g3887
sg48
g3890
sg54
g3894
sg60
g3898
sg65
g3902
sg70
g3906
sg74
g3909
ssg77
Nsbag0
(g9
g2
Ntp3912
Rp3913
(dp3914
g13
I23972
sg14
(lp3915
g0
(g16
g2
Ntp3916
Rp3917
(dp3918
g20
I78871
sg21
g22
sg23
I242
sg24
I1
sg25
I300
sg26
g27
sbag0
(g16
g2
Ntp3919
Rp3920
(dp3921
g20
I78873
sg21
g31
sg23
F0.461358731934707
sg24
I-1
sg25
I1
sg26
g32
sbag0
(g16
g2
Ntp3922
Rp3923
(dp3924
g20
I78875
sg21
g36
sg23
F-0.08505243880717056
sg24
I-1
sg25
I1
sg26
g32
sbag0
(g16
g2
Ntp3925
Rp3926
(dp3927
g20
I78877
sg21
g40
sg23
F0.02058514912514331
sg24
I-1
sg25
I1
sg26
g32
sbag0
(g16
g2
Ntp3928
Rp3929
(dp3930
g20
I78879
sg21
g44
sg23
F-0.26806375728983267
sg24
I-1
sg25
I1
sg26
g32
sbag0
(g16
g2
Ntp3931
Rp3932
(dp3933
g20
I78881
sg21
g48
sg23
(lp3934
F48.88823426056152
aF82.75288276481383
asg24
I0
sg25
I100
sg26
g50
sbag0
(g16
g2
Ntp3935
Rp3936
(dp3937
g20
I78883
sg21
g54
sg23
(lp3938
F0.7361299095102963
aF45.93110095479235
aF94.72027359667368
asg24
I0
sg25
I100
sg26
g56
sbag0
(g16
g2
Ntp3939
Rp3940
(dp3941
g20
I78885
sg21
g60
sg23
(lp3942
F60.284203296992956
aF74.44662444080032
asg24
I0
sg25
I100
sg26
g50
sbag0
(g16
g2
Ntp3943
Rp3944
(dp3945
g20
I78887
sg21
g65
sg23
(lp3946
F13.169346824053509
aF21.589133690495537
asg24
I1
sg25
I100
sg26
g65
sbag0
(g16
g2
Ntp3947
Rp3948
(dp3949
g20
I78889
sg21
g70
sg23
F0.7840863881057736
sg24
F0.01
sg25
F0.99
sg26
g32
sbag0
(g16
g2
Ntp3950
Rp3951
(dp3952
g20
I78891
sg21
g74
sg23
I220
sg24
I1
sg25
I300
sg26
g27
sbasg75
(dp3953
g22
g3917
sg31
g3920
sg36
g3923
sg40
g3926
sg44
g3929
sg48
g3932
sg54
g3936
sg60
g3940
sg65
g3944
sg70
g3948
sg74
g3951
ssg77
Nsbag0
(g9
g2
Ntp3954
Rp3955
(dp3956
g13
I23973
sg14
(lp3957
g0
(g16
g2
Ntp3958
Rp3959
(dp3960
g20
I78717
sg21
g22
sg23
I249
sg24
I1
sg25
I300
sg26
g27
sbag0
(g16
g2
Ntp3961
Rp3962
(dp3963
g20
I78719
sg21
g31
sg23
F0.8074230987981547
sg24
I-1
sg25
I1
sg26
g32
sbag0
(g16
g2
Ntp3964
Rp3965
(dp3966
g20
I78721
sg21
g36
sg23
F0.04594522704817238
sg24
I-1
sg25
I1
sg26
g32
sbag0
(g16
g2
Ntp3967
Rp3968
(dp3969
g20
I78723
sg21
g40
sg23
F-0.5955444144666915
sg24
I-1
sg25
I1
sg26
g32
sbag0
(g16
g2
Ntp3970
Rp3971
(dp3972
g20
I78648
sg21
g44
sg23
F-0.2672055479684662
sg24
I-1
sg25
I1
sg26
g32
sbag0
(g16
g2
Ntp3973
Rp3974
(dp3975
g20
I78650
sg21
g48
sg23
(lp3976
F61.234315626607966
aF86.39546945406619
asg24
I0
sg25
I100
sg26
g50
sbag0
(g16
g2
Ntp3977
Rp3978
(dp3979
g20
I77974
sg21
g54
sg23
(lp3980
F22.215357512494844
aF41.867267942124606
aF71.58544306915779
asg24
I0
sg25
I100
sg26
g56
sbag0
(g16
g2
Ntp3981
Rp3982
(dp3983
g20
I78217
sg21
g60
sg23
(lp3984
F49.1098017265361
aF75.17098814893139
asg24
I0
sg25
I100
sg26
g50
sbag0
(g16
g2
Ntp3985
Rp3986
(dp3987
g20
I78218
sg21
g65
sg23
(lp3988
F13.24267423817685
aF21.654357212880015
asg24
I1
sg25
I100
sg26
g65
sbag0
(g16
g2
Ntp3989
Rp3990
(dp3991
g20
I78219
sg21
g70
sg23
F0.40353343339809217
sg24
F0.01
sg25
F0.99
sg26
g32
sbag0
(g16
g2
Ntp3992
Rp3993
(dp3994
g20
I78220
sg21
g74
sg23
I220
sg24
I1
sg25
I300
sg26
g27
sbasg75
(dp3995
g22
g3959
sg31
g3962
sg36
g3965
sg40
g3968
sg44
g3971
sg48
g3974
sg54
g3978
sg60
g3982
sg65
g3986
sg70
g3990
sg74
g3993
ssg77
Nsbag0
(g9
g2
Ntp3996
Rp3997
(dp3998
g13
I23974
sg14
(lp3999
g0
(g16
g2
Ntp4000
Rp4001
(dp4002
g20
I78640
sg21
g22
sg23
I242
sg24
I1
sg25
I300
sg26
g27
sbag0
(g16
g2
Ntp4003
Rp4004
(dp4005
g20
I78642
sg21
g31
sg23
F0.7362135028275401
sg24
I-1
sg25
I1
sg26
g32
sbag0
(g16
g2
Ntp4006
Rp4007
(dp4008
g20
I78644
sg21
g36
sg23
F0.69475941118123
sg24
I-1
sg25
I1
sg26
g32
sbag0
(g16
g2
Ntp4009
Rp4010
(dp4011
g20
I78646
sg21
g40
sg23
F-0.9853420095369011
sg24
I-1
sg25
I1
sg26
g32
sbag0
(g16
g2
Ntp4012
Rp4013
(dp4014
g20
I78725
sg21
g44
sg23
F-0.47952273770585774
sg24
I-1
sg25
I1
sg26
g32
sbag0
(g16
g2
Ntp4015
Rp4016
(dp4017
g20
I78215
sg21
g48
sg23
(lp4018
F61.85556010424398
aF87.81855634627108
asg24
I0
sg25
I100
sg26
g50
sbag0
(g16
g2
Ntp4019
Rp4020
(dp4021
g20
I78216
sg21
g54
sg23
(lp4022
F21.27732786443895
aF42.00899665871131
aF71.51197260845683
asg24
I0
sg25
I100
sg26
g56
sbag0
(g16
g2
Ntp4023
Rp4024
(dp4025
g20
I77997
sg21
g60
sg23
(lp4026
F32.662203743974835
aF96.48625973759012
asg24
I0
sg25
I100
sg26
g50
sbag0
(g16
g2
Ntp4027
Rp4028
(dp4029
g20
I76786
sg21
g65
sg23
(lp4030
F13.157222434175726
aF21.580810521826344
asg24
I1
sg25
I100
sg26
g65
sbag0
(g16
g2
Ntp4031
Rp4032
(dp4033
g20
I78658
sg21
g70
sg23
F0.7593030132137675
sg24
F0.01
sg25
F0.99
sg26
g32
sbag0
(g16
g2
Ntp4034
Rp4035
(dp4036
g20
I78660
sg21
g74
sg23
I220
sg24
I1
sg25
I300
sg26
g27
sbasg75
(dp4037
g22
g4001
sg31
g4004
sg36
g4007
sg40
g4010
sg44
g4013
sg48
g4016
sg54
g4020
sg60
g4024
sg65
g4028
sg70
g4032
sg74
g4035
ssg77
Nsbag0
(g9
g2
Ntp4038
Rp4039
(dp4040
g13
I23975
sg14
(lp4041
g0
(g16
g2
Ntp4042
Rp4043
(dp4044
g20
I78892
sg21
g22
sg23
I245
sg24
I1
sg25
I300
sg26
g27
sbag0
(g16
g2
Ntp4045
Rp4046
(dp4047
g20
I78894
sg21
g31
sg23
F0.7567913925575911
sg24
I-1
sg25
I1
sg26
g32
sbag0
(g16
g2
Ntp4048
Rp4049
(dp4050
g20
I78896
sg21
g36
sg23
F0.016722443676860065
sg24
I-1
sg25
I1
sg26
g32
sbag0
(g16
g2
Ntp4051
Rp4052
(dp4053
g20
I78898
sg21
g40
sg23
F-0.64191662285856
sg24
I-1
sg25
I1
sg26
g32
sbag0
(g16
g2
Ntp4054
Rp4055
(dp4056
g20
I78900
sg21
g44
sg23
F-0.2903879922217888
sg24
I-1
sg25
I1
sg26
g32
sbag0
(g16
g2
Ntp4057
Rp4058
(dp4059
g20
I78902
sg21
g48
sg23
(lp4060
F63.34285152871328
aF86.2696518088734
asg24
I0
sg25
I100
sg26
g50
sbag0
(g16
g2
Ntp4061
Rp4062
(dp4063
g20
I78904
sg21
g54
sg23
(lp4064
F21.919772656969993
aF43.83580416027104
aF70.79627552298861
asg24
I0
sg25
I100
sg26
g56
sbag0
(g16
g2
Ntp4065
Rp4066
(dp4067
g20
I78906
sg21
g60
sg23
(lp4068
F60.35706854861639
aF80.40920603559879
asg24
I0
sg25
I100
sg26
g50
sbag0
(g16
g2
Ntp4069
Rp4070
(dp4071
g20
I78908
sg21
g65
sg23
(lp4072
F30.245824090933567
aF96.15263841266602
asg24
I1
sg25
I100
sg26
g65
sbag0
(g16
g2
Ntp4073
Rp4074
(dp4075
g20
I78910
sg21
g70
sg23
F0.5335254740979698
sg24
F0.01
sg25
F0.99
sg26
g32
sbag0
(g16
g2
Ntp4076
Rp4077
(dp4078
g20
I78912
sg21
g74
sg23
I218
sg24
I1
sg25
I300
sg26
g27
sbasg75
(dp4079
g22
g4043
sg31
g4046
sg36
g4049
sg40
g4052
sg44
g4055
sg48
g4058
sg54
g4062
sg60
g4066
sg65
g4070
sg70
g4074
sg74
g4077
ssg77
Nsbag0
(g9
g2
Ntp4080
Rp4081
(dp4082
g13
I23976
sg14
(lp4083
g0
(g16
g2
Ntp4084
Rp4085
(dp4086
g20
I78893
sg21
g22
sg23
I229
sg24
I1
sg25
I300
sg26
g27
sbag0
(g16
g2
Ntp4087
Rp4088
(dp4089
g20
I78895
sg21
g31
sg23
F0.8076078173339207
sg24
I-1
sg25
I1
sg26
g32
sbag0
(g16
g2
Ntp4090
Rp4091
(dp4092
g20
I78897
sg21
g36
sg23
F-0.06598926994891166
sg24
I-1
sg25
I1
sg26
g32
sbag0
(g16
g2
Ntp4093
Rp4094
(dp4095
g20
I78899
sg21
g40
sg23
F0.6416451988505203
sg24
I-1
sg25
I1
sg26
g32
sbag0
(g16
g2
Ntp4096
Rp4097
(dp4098
g20
I78901
sg21
g44
sg23
F0.519674107758662
sg24
I-1
sg25
I1
sg26
g32
sbag0
(g16
g2
Ntp4099
Rp4100
(dp4101
g20
I78903
sg21
g48
sg23
(lp4102
F13.885733537916018
aF99.33499247554981
asg24
I0
sg25
I100
sg26
g50
sbag0
(g16
g2
Ntp4103
Rp4104
(dp4105
g20
I78905
sg21
g54
sg23
(lp4106
F24.145538421168958
aF74.97772822615711
aF80.36984183060868
asg24
I0
sg25
I100
sg26
g56
sbag0
(g16
g2
Ntp4107
Rp4108
(dp4109
g20
I78907
sg21
g60
sg23
(lp4110
F65.01541818966749
aF82.14630237773402
asg24
I0
sg25
I100
sg26
g50
sbag0
(g16
g2
Ntp4111
Rp4112
(dp4113
g20
I78909
sg21
g65
sg23
(lp4114
F13.376848426657522
aF23.57935796697946
asg24
I1
sg25
I100
sg26
g65
sbag0
(g16
g2
Ntp4115
Rp4116
(dp4117
g20
I78911
sg21
g70
sg23
F0.8401983320712267
sg24
F0.01
sg25
F0.99
sg26
g32
sbag0
(g16
g2
Ntp4118
Rp4119
(dp4120
g20
I78913
sg21
g74
sg23
I227
sg24
I1
sg25
I300
sg26
g27
sbasg75
(dp4121
g22
g4085
sg31
g4088
sg36
g4091
sg40
g4094
sg44
g4097
sg48
g4100
sg54
g4104
sg60
g4108
sg65
g4112
sg70
g4116
sg74
g4119
ssg77
Nsbasb.