ccopy_reg
_reconstructor
p0
(cPopulation
Population
p1
c__builtin__
object
p2
Ntp3
Rp4
(dp5
Vpopulation_id
p6
I3
sVpopulation
p7
(lp8
g0
(cGenome
Genome
p9
g2
Ntp10
Rp11
(dp12
Vgenome_id
p13
I2
sVgenome
p14
(lp15
g0
(cGene
Gene
p16
g2
Ntp17
Rp18
(dp19
Vgene_id
p20
I0
sVname
p21
VRSI_window
p22
sVvalue
p23
I30
sVlower_bound
p24
I1
sVupper_bound
p25
I300
sVtype
p26
Vint
p27
sbag0
(g16
g2
Ntp28
Rp29
(dp30
g20
I1
sg21
VRSI_p1
p31
sg23
I1
sg24
I-1
sg25
I1
sg26
Vfloat
p32
sbag0
(g16
g2
Ntp33
Rp34
(dp35
g20
I2
sg21
VRSI_p2
p36
sg23
I1
sg24
I-1
sg25
I1
sg26
g32
sbag0
(g16
g2
Ntp37
Rp38
(dp39
g20
I3
sg21
VRSI_p3
p40
sg23
I1
sg24
I-1
sg25
I1
sg26
g32
sbag0
(g16
g2
Ntp41
Rp42
(dp43
g20
I4
sg21
VRSI_p4
p44
sg23
I1
sg24
I-1
sg25
I1
sg26
g32
sbag0
(g16
g2
Ntp45
Rp46
(dp47
g20
I5
sg21
VRSI_low_membership
p48
sg23
(lp49
I0
aI25
asg24
I0
sg25
I100
sg26
Vlinear_membership
p50
sbag0
(g16
g2
Ntp51
Rp52
(dp53
g20
I6
sg21
VRSI_middle_membership
p54
sg23
(lp55
I25
aI50
aI75
asg24
I0
sg25
I100
sg26
Vtriangular_membership
p56
sbag0
(g16
g2
Ntp57
Rp58
(dp59
g20
I7
sg21
VRSI_high_membership
p60
sg23
(lp61
I75
aI100
asg24
I0
sg25
I100
sg26
g50
sbag0
(g16
g2
Ntp62
Rp63
(dp64
g20
I8
sg21
Ventry_condition
p65
sg23
(lp66
I50
aI50
asg24
I1
sg25
I100
sg26
g65
sbag0
(g16
g2
Ntp67
Rp68
(dp69
g20
I9
sg21
Vstop_loss
p70
sg23
F0.95
sg24
F0.01
sg25
F0.99
sg26
g32
sbag0
(g16
g2
Ntp71
Rp72
(dp73
g20
I10
sg21
Vz_rolling_window
p74
sg23
I30
sg24
I1
sg25
I300
sg26
g27
sbasVgenome_dict
p75
(dp76
g22
g18
sg31
g29
sg36
g34
sg40
g38
sg44
g42
sg48
g46
sg54
g52
sg60
g58
sg65
g63
sg70
g68
sg74
g72
ssVfitness
p77
Nsbag0
(g9
g2
Ntp78
Rp79
(dp80
g13
I2
sg14
(lp81
g0
(g16
g2
Ntp82
Rp83
(dp84
g20
I0
sg21
g22
sg23
I30
sg24
I1
sg25
I300
sg26
g27
sbag0
(g16
g2
Ntp85
Rp86
(dp87
g20
I1
sg21
g31
sg23
I1
sg24
I-1
sg25
I1
sg26
g32
sbag0
(g16
g2
Ntp88
Rp89
(dp90
g20
I2
sg21
g36
sg23
I1
sg24
I-1
sg25
I1
sg26
g32
sbag0
(g16
g2
Ntp91
Rp92
(dp93
g20
I3
sg21
g40
sg23
I1
sg24
I-1
sg25
I1
sg26
g32
sbag0
(g16
g2
Ntp94
Rp95
(dp96
g20
I4
sg21
g44
sg23
I1
sg24
I-1
sg25
I1
sg26
g32
sbag0
(g16
g2
Ntp97
Rp98
(dp99
g20
I5
sg21
g48
sg23
(lp100
I0
aI25
asg24
I0
sg25
I100
sg26
g50
sbag0
(g16
g2
Ntp101
Rp102
(dp103
g20
I6
sg21
g54
sg23
(lp104
I25
aI50
aI75
asg24
I0
sg25
I100
sg26
g56
sbag0
(g16
g2
Ntp105
Rp106
(dp107
g20
I7
sg21
g60
sg23
(lp108
I75
aI100
asg24
I0
sg25
I100
sg26
g50
sbag0
(g16
g2
Ntp109
Rp110
(dp111
g20
I8
sg21
g65
sg23
(lp112
I50
aI50
asg24
I1
sg25
I100
sg26
g65
sbag0
(g16
g2
Ntp113
Rp114
(dp115
g20
I9
sg21
g70
sg23
F0.95
sg24
F0.01
sg25
F0.99
sg26
g32
sbag0
(g16
g2
Ntp116
Rp117
(dp118
g20
I10
sg21
g74
sg23
I30
sg24
I1
sg25
I300
sg26
g27
sbasg75
(dp119
g22
g83
sg31
g86
sg36
g89
sg40
g92
sg44
g95
sg48
g98
sg54
g102
sg60
g106
sg65
g110
sg70
g114
sg74
g117
ssg77
Nsbag0
(g9
g2
Ntp120
Rp121
(dp122
g13
I3
sg14
(lp123
g0
(g16
g2
Ntp124
Rp125
(dp126
g20
I0
sg21
g22
sg23
I30
sg24
I1
sg25
I300
sg26
g27
sbag0
(g16
g2
Ntp127
Rp128
(dp129
g20
I1
sg21
g31
sg23
I1
sg24
I-1
sg25
I1
sg26
g32
sbag0
(g16
g2
Ntp130
Rp131
(dp132
g20
I2
sg21
g36
sg23
I1
sg24
I-1
sg25
I1
sg26
g32
sbag0
(g16
g2
Ntp133
Rp134
(dp135
g20
I3
sg21
g40
sg23
I1
sg24
I-1
sg25
I1
sg26
g32
sbag0
(g16
g2
Ntp136
Rp137
(dp138
g20
I4
sg21
g44
sg23
I1
sg24
I-1
sg25
I1
sg26
g32
sbag0
(g16
g2
Ntp139
Rp140
(dp141
g20
I5
sg21
g48
sg23
(lp142
I0
aI25
asg24
I0
sg25
I100
sg26
g50
sbag0
(g16
g2
Ntp143
Rp144
(dp145
g20
I6
sg21
g54
sg23
(lp146
I25
aI50
aI75
asg24
I0
sg25
I100
sg26
g56
sbag0
(g16
g2
Ntp147
Rp148
(dp149
g20
I7
sg21
g60
sg23
(lp150
I75
aI100
asg24
I0
sg25
I100
sg26
g50
sbag0
(g16
g2
Ntp151
Rp152
(dp153
g20
I8
sg21
g65
sg23
(lp154
I50
aI50
asg24
I1
sg25
I100
sg26
g65
sbag0
(g16
g2
Ntp155
Rp156
(dp157
g20
I9
sg21
g70
sg23
F0.95
sg24
F0.01
sg25
F0.99
sg26
g32
sbag0
(g16
g2
Ntp158
Rp159
(dp160
g20
I10
sg21
g74
sg23
I30
sg24
I1
sg25
I300
sg26
g27
sbasg75
(dp161
g22
g125
sg31
g128
sg36
g131
sg40
g134
sg44
g137
sg48
g140
sg54
g144
sg60
g148
sg65
g152
sg70
g156
sg74
g159
ssg77
Nsbag0
(g9
g2
Ntp162
Rp163
(dp164
g13
I4
sg14
(lp165
g0
(g16
g2
Ntp166
Rp167
(dp168
g20
I0
sg21
g22
sg23
I30
sg24
I1
sg25
I300
sg26
g27
sbag0
(g16
g2
Ntp169
Rp170
(dp171
g20
I1
sg21
g31
sg23
I1
sg24
I-1
sg25
I1
sg26
g32
sbag0
(g16
g2
Ntp172
Rp173
(dp174
g20
I2
sg21
g36
sg23
I1
sg24
I-1
sg25
I1
sg26
g32
sbag0
(g16
g2
Ntp175
Rp176
(dp177
g20
I3
sg21
g40
sg23
I1
sg24
I-1
sg25
I1
sg26
g32
sbag0
(g16
g2
Ntp178
Rp179
(dp180
g20
I4
sg21
g44
sg23
I1
sg24
I-1
sg25
I1
sg26
g32
sbag0
(g16
g2
Ntp181
Rp182
(dp183
g20
I5
sg21
g48
sg23
(lp184
I0
aI25
asg24
I0
sg25
I100
sg26
g50
sbag0
(g16
g2
Ntp185
Rp186
(dp187
g20
I6
sg21
g54
sg23
(lp188
I25
aI50
aI75
asg24
I0
sg25
I100
sg26
g56
sbag0
(g16
g2
Ntp189
Rp190
(dp191
g20
I7
sg21
g60
sg23
(lp192
I75
aI100
asg24
I0
sg25
I100
sg26
g50
sbag0
(g16
g2
Ntp193
Rp194
(dp195
g20
I8
sg21
g65
sg23
(lp196
I50
aI50
asg24
I1
sg25
I100
sg26
g65
sbag0
(g16
g2
Ntp197
Rp198
(dp199
g20
I9
sg21
g70
sg23
F0.95
sg24
F0.01
sg25
F0.99
sg26
g32
sbag0
(g16
g2
Ntp200
Rp201
(dp202
g20
I10
sg21
g74
sg23
I30
sg24
I1
sg25
I300
sg26
g27
sbasg75
(dp203
g22
g167
sg31
g170
sg36
g173
sg40
g176
sg44
g179
sg48
g182
sg54
g186
sg60
g190
sg65
g194
sg70
g198
sg74
g201
ssg77
Nsbag0
(g9
g2
Ntp204
Rp205
(dp206
g13
I4
sg14
(lp207
g0
(g16
g2
Ntp208
Rp209
(dp210
g20
I0
sg21
g22
sg23
I30
sg24
I1
sg25
I300
sg26
g27
sbag0
(g16
g2
Ntp211
Rp212
(dp213
g20
I1
sg21
g31
sg23
I1
sg24
I-1
sg25
I1
sg26
g32
sbag0
(g16
g2
Ntp214
Rp215
(dp216
g20
I2
sg21
g36
sg23
I1
sg24
I-1
sg25
I1
sg26
g32
sbag0
(g16
g2
Ntp217
Rp218
(dp219
g20
I3
sg21
g40
sg23
I1
sg24
I-1
sg25
I1
sg26
g32
sbag0
(g16
g2
Ntp220
Rp221
(dp222
g20
I4
sg21
g44
sg23
I1
sg24
I-1
sg25
I1
sg26
g32
sbag0
(g16
g2
Ntp223
Rp224
(dp225
g20
I5
sg21
g48
sg23
(lp226
I0
aI25
asg24
I0
sg25
I100
sg26
g50
sbag0
(g16
g2
Ntp227
Rp228
(dp229
g20
I6
sg21
g54
sg23
(lp230
I25
aI50
aI75
asg24
I0
sg25
I100
sg26
g56
sbag0
(g16
g2
Ntp231
Rp232
(dp233
g20
I7
sg21
g60
sg23
(lp234
I75
aI100
asg24
I0
sg25
I100
sg26
g50
sbag0
(g16
g2
Ntp235
Rp236
(dp237
g20
I8
sg21
g65
sg23
(lp238
I50
aI50
asg24
I1
sg25
I100
sg26
g65
sbag0
(g16
g2
Ntp239
Rp240
(dp241
g20
I9
sg21
g70
sg23
F0.95
sg24
F0.01
sg25
F0.99
sg26
g32
sbag0
(g16
g2
Ntp242
Rp243
(dp244
g20
I10
sg21
g74
sg23
I30
sg24
I1
sg25
I300
sg26
g27
sbasg75
(dp245
g22
g209
sg31
g212
sg36
g215
sg40
g218
sg44
g221
sg48
g224
sg54
g228
sg60
g232
sg65
g236
sg70
g240
sg74
g243
ssg77
Nsbag0
(g9
g2
Ntp246
Rp247
(dp248
g13
I5
sg14
(lp249
g0
(g16
g2
Ntp250
Rp251
(dp252
g20
I0
sg21
g22
sg23
I30
sg24
I1
sg25
I300
sg26
g27
sbag0
(g16
g2
Ntp253
Rp254
(dp255
g20
I1
sg21
g31
sg23
I1
sg24
I-1
sg25
I1
sg26
g32
sbag0
(g16
g2
Ntp256
Rp257
(dp258
g20
I2
sg21
g36
sg23
I1
sg24
I-1
sg25
I1
sg26
g32
sbag0
(g16
g2
Ntp259
Rp260
(dp261
g20
I3
sg21
g40
sg23
I1
sg24
I-1
sg25
I1
sg26
g32
sbag0
(g16
g2
Ntp262
Rp263
(dp264
g20
I4
sg21
g44
sg23
I1
sg24
I-1
sg25
I1
sg26
g32
sbag0
(g16
g2
Ntp265
Rp266
(dp267
g20
I5
sg21
g48
sg23
(lp268
I0
aI25
asg24
I0
sg25
I100
sg26
g50
sbag0
(g16
g2
Ntp269
Rp270
(dp271
g20
I6
sg21
g54
sg23
(lp272
I25
aI50
aI75
asg24
I0
sg25
I100
sg26
g56
sbag0
(g16
g2
Ntp273
Rp274
(dp275
g20
I7
sg21
g60
sg23
(lp276
I75
aI100
asg24
I0
sg25
I100
sg26
g50
sbag0
(g16
g2
Ntp277
Rp278
(dp279
g20
I8
sg21
g65
sg23
(lp280
I50
aI50
asg24
I1
sg25
I100
sg26
g65
sbag0
(g16
g2
Ntp281
Rp282
(dp283
g20
I9
sg21
g70
sg23
F0.95
sg24
F0.01
sg25
F0.99
sg26
g32
sbag0
(g16
g2
Ntp284
Rp285
(dp286
g20
I10
sg21
g74
sg23
I30
sg24
I1
sg25
I300
sg26
g27
sbasg75
(dp287
g22
g251
sg31
g254
sg36
g257
sg40
g260
sg44
g263
sg48
g266
sg54
g270
sg60
g274
sg65
g278
sg70
g282
sg74
g285
ssg77
Nsbag0
(g9
g2
Ntp288
Rp289
(dp290
g13
I6
sg14
(lp291
g0
(g16
g2
Ntp292
Rp293
(dp294
g20
I0
sg21
g22
sg23
I30
sg24
I1
sg25
I300
sg26
g27
sbag0
(g16
g2
Ntp295
Rp296
(dp297
g20
I1
sg21
g31
sg23
I1
sg24
I-1
sg25
I1
sg26
g32
sbag0
(g16
g2
Ntp298
Rp299
(dp300
g20
I2
sg21
g36
sg23
I1
sg24
I-1
sg25
I1
sg26
g32
sbag0
(g16
g2
Ntp301
Rp302
(dp303
g20
I3
sg21
g40
sg23
I1
sg24
I-1
sg25
I1
sg26
g32
sbag0
(g16
g2
Ntp304
Rp305
(dp306
g20
I4
sg21
g44
sg23
I1
sg24
I-1
sg25
I1
sg26
g32
sbag0
(g16
g2
Ntp307
Rp308
(dp309
g20
I5
sg21
g48
sg23
(lp310
I0
aI25
asg24
I0
sg25
I100
sg26
g50
sbag0
(g16
g2
Ntp311
Rp312
(dp313
g20
I6
sg21
g54
sg23
(lp314
I25
aI50
aI75
asg24
I0
sg25
I100
sg26
g56
sbag0
(g16
g2
Ntp315
Rp316
(dp317
g20
I7
sg21
g60
sg23
(lp318
I75
aI100
asg24
I0
sg25
I100
sg26
g50
sbag0
(g16
g2
Ntp319
Rp320
(dp321
g20
I8
sg21
g65
sg23
(lp322
I50
aI50
asg24
I1
sg25
I100
sg26
g65
sbag0
(g16
g2
Ntp323
Rp324
(dp325
g20
I9
sg21
g70
sg23
F0.95
sg24
F0.01
sg25
F0.99
sg26
g32
sbag0
(g16
g2
Ntp326
Rp327
(dp328
g20
I10
sg21
g74
sg23
I30
sg24
I1
sg25
I300
sg26
g27
sbasg75
(dp329
g22
g293
sg31
g296
sg36
g299
sg40
g302
sg44
g305
sg48
g308
sg54
g312
sg60
g316
sg65
g320
sg70
g324
sg74
g327
ssg77
Nsbag0
(g9
g2
Ntp330
Rp331
(dp332
g13
I6
sg14
(lp333
g0
(g16
g2
Ntp334
Rp335
(dp336
g20
I0
sg21
g22
sg23
I30
sg24
I1
sg25
I300
sg26
g27
sbag0
(g16
g2
Ntp337
Rp338
(dp339
g20
I1
sg21
g31
sg23
I1
sg24
I-1
sg25
I1
sg26
g32
sbag0
(g16
g2
Ntp340
Rp341
(dp342
g20
I2
sg21
g36
sg23
I1
sg24
I-1
sg25
I1
sg26
g32
sbag0
(g16
g2
Ntp343
Rp344
(dp345
g20
I3
sg21
g40
sg23
I1
sg24
I-1
sg25
I1
sg26
g32
sbag0
(g16
g2
Ntp346
Rp347
(dp348
g20
I4
sg21
g44
sg23
I1
sg24
I-1
sg25
I1
sg26
g32
sbag0
(g16
g2
Ntp349
Rp350
(dp351
g20
I5
sg21
g48
sg23
(lp352
I0
aI25
asg24
I0
sg25
I100
sg26
g50
sbag0
(g16
g2
Ntp353
Rp354
(dp355
g20
I6
sg21
g54
sg23
(lp356
I25
aI50
aI75
asg24
I0
sg25
I100
sg26
g56
sbag0
(g16
g2
Ntp357
Rp358
(dp359
g20
I7
sg21
g60
sg23
(lp360
I75
aI100
asg24
I0
sg25
I100
sg26
g50
sbag0
(g16
g2
Ntp361
Rp362
(dp363
g20
I8
sg21
g65
sg23
(lp364
I50
aI50
asg24
I1
sg25
I100
sg26
g65
sbag0
(g16
g2
Ntp365
Rp366
(dp367
g20
I9
sg21
g70
sg23
F0.95
sg24
F0.01
sg25
F0.99
sg26
g32
sbag0
(g16
g2
Ntp368
Rp369
(dp370
g20
I10
sg21
g74
sg23
I30
sg24
I1
sg25
I300
sg26
g27
sbasg75
(dp371
g22
g335
sg31
g338
sg36
g341
sg40
g344
sg44
g347
sg48
g350
sg54
g354
sg60
g358
sg65
g362
sg70
g366
sg74
g369
ssg77
Nsbag0
(g9
g2
Ntp372
Rp373
(dp374
g13
I7
sg14
(lp375
g0
(g16
g2
Ntp376
Rp377
(dp378
g20
I0
sg21
g22
sg23
I30
sg24
I1
sg25
I300
sg26
g27
sbag0
(g16
g2
Ntp379
Rp380
(dp381
g20
I1
sg21
g31
sg23
I1
sg24
I-1
sg25
I1
sg26
g32
sbag0
(g16
g2
Ntp382
Rp383
(dp384
g20
I2
sg21
g36
sg23
I1
sg24
I-1
sg25
I1
sg26
g32
sbag0
(g16
g2
Ntp385
Rp386
(dp387
g20
I3
sg21
g40
sg23
I1
sg24
I-1
sg25
I1
sg26
g32
sbag0
(g16
g2
Ntp388
Rp389
(dp390
g20
I4
sg21
g44
sg23
I1
sg24
I-1
sg25
I1
sg26
g32
sbag0
(g16
g2
Ntp391
Rp392
(dp393
g20
I5
sg21
g48
sg23
(lp394
I0
aI25
asg24
I0
sg25
I100
sg26
g50
sbag0
(g16
g2
Ntp395
Rp396
(dp397
g20
I6
sg21
g54
sg23
(lp398
I25
aI50
aI75
asg24
I0
sg25
I100
sg26
g56
sbag0
(g16
g2
Ntp399
Rp400
(dp401
g20
I7
sg21
g60
sg23
(lp402
I75
aI100
asg24
I0
sg25
I100
sg26
g50
sbag0
(g16
g2
Ntp403
Rp404
(dp405
g20
I8
sg21
g65
sg23
(lp406
I50
aI50
asg24
I1
sg25
I100
sg26
g65
sbag0
(g16
g2
Ntp407
Rp408
(dp409
g20
I9
sg21
g70
sg23
F0.95
sg24
F0.01
sg25
F0.99
sg26
g32
sbag0
(g16
g2
Ntp410
Rp411
(dp412
g20
I10
sg21
g74
sg23
I30
sg24
I1
sg25
I300
sg26
g27
sbasg75
(dp413
g22
g377
sg31
g380
sg36
g383
sg40
g386
sg44
g389
sg48
g392
sg54
g396
sg60
g400
sg65
g404
sg70
g408
sg74
g411
ssg77
Nsbag0
(g9
g2
Ntp414
Rp415
(dp416
g13
I8
sg14
(lp417
g0
(g16
g2
Ntp418
Rp419
(dp420
g20
I0
sg21
g22
sg23
I30
sg24
I1
sg25
I300
sg26
g27
sbag0
(g16
g2
Ntp421
Rp422
(dp423
g20
I1
sg21
g31
sg23
I1
sg24
I-1
sg25
I1
sg26
g32
sbag0
(g16
g2
Ntp424
Rp425
(dp426
g20
I2
sg21
g36
sg23
I1
sg24
I-1
sg25
I1
sg26
g32
sbag0
(g16
g2
Ntp427
Rp428
(dp429
g20
I3
sg21
g40
sg23
I1
sg24
I-1
sg25
I1
sg26
g32
sbag0
(g16
g2
Ntp430
Rp431
(dp432
g20
I4
sg21
g44
sg23
I1
sg24
I-1
sg25
I1
sg26
g32
sbag0
(g16
g2
Ntp433
Rp434
(dp435
g20
I5
sg21
g48
sg23
(lp436
I0
aI25
asg24
I0
sg25
I100
sg26
g50
sbag0
(g16
g2
Ntp437
Rp438
(dp439
g20
I6
sg21
g54
sg23
(lp440
I25
aI50
aI75
asg24
I0
sg25
I100
sg26
g56
sbag0
(g16
g2
Ntp441
Rp442
(dp443
g20
I7
sg21
g60
sg23
(lp444
I75
aI100
asg24
I0
sg25
I100
sg26
g50
sbag0
(g16
g2
Ntp445
Rp446
(dp447
g20
I8
sg21
g65
sg23
(lp448
I50
aI50
asg24
I1
sg25
I100
sg26
g65
sbag0
(g16
g2
Ntp449
Rp450
(dp451
g20
I9
sg21
g70
sg23
F0.95
sg24
F0.01
sg25
F0.99
sg26
g32
sbag0
(g16
g2
Ntp452
Rp453
(dp454
g20
I10
sg21
g74
sg23
I30
sg24
I1
sg25
I300
sg26
g27
sbasg75
(dp455
g22
g419
sg31
g422
sg36
g425
sg40
g428
sg44
g431
sg48
g434
sg54
g438
sg60
g442
sg65
g446
sg70
g450
sg74
g453
ssg77
Nsbag0
(g9
g2
Ntp456
Rp457
(dp458
g13
I8
sg14
(lp459
g0
(g16
g2
Ntp460
Rp461
(dp462
g20
I0
sg21
g22
sg23
I30
sg24
I1
sg25
I300
sg26
g27
sbag0
(g16
g2
Ntp463
Rp464
(dp465
g20
I1
sg21
g31
sg23
I1
sg24
I-1
sg25
I1
sg26
g32
sbag0
(g16
g2
Ntp466
Rp467
(dp468
g20
I2
sg21
g36
sg23
I1
sg24
I-1
sg25
I1
sg26
g32
sbag0
(g16
g2
Ntp469
Rp470
(dp471
g20
I3
sg21
g40
sg23
I1
sg24
I-1
sg25
I1
sg26
g32
sbag0
(g16
g2
Ntp472
Rp473
(dp474
g20
I4
sg21
g44
sg23
I1
sg24
I-1
sg25
I1
sg26
g32
sbag0
(g16
g2
Ntp475
Rp476
(dp477
g20
I5
sg21
g48
sg23
(lp478
I0
aI25
asg24
I0
sg25
I100
sg26
g50
sbag0
(g16
g2
Ntp479
Rp480
(dp481
g20
I6
sg21
g54
sg23
(lp482
I25
aI50
aI75
asg24
I0
sg25
I100
sg26
g56
sbag0
(g16
g2
Ntp483
Rp484
(dp485
g20
I7
sg21
g60
sg23
(lp486
I75
aI100
asg24
I0
sg25
I100
sg26
g50
sbag0
(g16
g2
Ntp487
Rp488
(dp489
g20
I8
sg21
g65
sg23
(lp490
I50
aI50
asg24
I1
sg25
I100
sg26
g65
sbag0
(g16
g2
Ntp491
Rp492
(dp493
g20
I9
sg21
g70
sg23
F0.95
sg24
F0.01
sg25
F0.99
sg26
g32
sbag0
(g16
g2
Ntp494
Rp495
(dp496
g20
I10
sg21
g74
sg23
I30
sg24
I1
sg25
I300
sg26
g27
sbasg75
(dp497
g22
g461
sg31
g464
sg36
g467
sg40
g470
sg44
g473
sg48
g476
sg54
g480
sg60
g484
sg65
g488
sg70
g492
sg74
g495
ssg77
Nsbag0
(g9
g2
Ntp498
Rp499
(dp500
g13
I9
sg14
(lp501
g0
(g16
g2
Ntp502
Rp503
(dp504
g20
I0
sg21
g22
sg23
I30
sg24
I1
sg25
I300
sg26
g27
sbag0
(g16
g2
Ntp505
Rp506
(dp507
g20
I1
sg21
g31
sg23
I1
sg24
I-1
sg25
I1
sg26
g32
sbag0
(g16
g2
Ntp508
Rp509
(dp510
g20
I2
sg21
g36
sg23
I1
sg24
I-1
sg25
I1
sg26
g32
sbag0
(g16
g2
Ntp511
Rp512
(dp513
g20
I3
sg21
g40
sg23
I1
sg24
I-1
sg25
I1
sg26
g32
sbag0
(g16
g2
Ntp514
Rp515
(dp516
g20
I4
sg21
g44
sg23
I1
sg24
I-1
sg25
I1
sg26
g32
sbag0
(g16
g2
Ntp517
Rp518
(dp519
g20
I5
sg21
g48
sg23
(lp520
I0
aI25
asg24
I0
sg25
I100
sg26
g50
sbag0
(g16
g2
Ntp521
Rp522
(dp523
g20
I6
sg21
g54
sg23
(lp524
I25
aI50
aI75
asg24
I0
sg25
I100
sg26
g56
sbag0
(g16
g2
Ntp525
Rp526
(dp527
g20
I7
sg21
g60
sg23
(lp528
I75
aI100
asg24
I0
sg25
I100
sg26
g50
sbag0
(g16
g2
Ntp529
Rp530
(dp531
g20
I8
sg21
g65
sg23
(lp532
I50
aI50
asg24
I1
sg25
I100
sg26
g65
sbag0
(g16
g2
Ntp533
Rp534
(dp535
g20
I9
sg21
g70
sg23
F0.95
sg24
F0.01
sg25
F0.99
sg26
g32
sbag0
(g16
g2
Ntp536
Rp537
(dp538
g20
I10
sg21
g74
sg23
I30
sg24
I1
sg25
I300
sg26
g27
sbasg75
(dp539
g22
g503
sg31
g506
sg36
g509
sg40
g512
sg44
g515
sg48
g518
sg54
g522
sg60
g526
sg65
g530
sg70
g534
sg74
g537
ssg77
Nsbag0
(g9
g2
Ntp540
Rp541
(dp542
g13
I10
sg14
(lp543
g0
(g16
g2
Ntp544
Rp545
(dp546
g20
I0
sg21
g22
sg23
I30
sg24
I1
sg25
I300
sg26
g27
sbag0
(g16
g2
Ntp547
Rp548
(dp549
g20
I1
sg21
g31
sg23
I1
sg24
I-1
sg25
I1
sg26
g32
sbag0
(g16
g2
Ntp550
Rp551
(dp552
g20
I2
sg21
g36
sg23
I1
sg24
I-1
sg25
I1
sg26
g32
sbag0
(g16
g2
Ntp553
Rp554
(dp555
g20
I3
sg21
g40
sg23
I1
sg24
I-1
sg25
I1
sg26
g32
sbag0
(g16
g2
Ntp556
Rp557
(dp558
g20
I4
sg21
g44
sg23
I1
sg24
I-1
sg25
I1
sg26
g32
sbag0
(g16
g2
Ntp559
Rp560
(dp561
g20
I5
sg21
g48
sg23
(lp562
I0
aI25
asg24
I0
sg25
I100
sg26
g50
sbag0
(g16
g2
Ntp563
Rp564
(dp565
g20
I6
sg21
g54
sg23
(lp566
I25
aI50
aI75
asg24
I0
sg25
I100
sg26
g56
sbag0
(g16
g2
Ntp567
Rp568
(dp569
g20
I7
sg21
g60
sg23
(lp570
I75
aI100
asg24
I0
sg25
I100
sg26
g50
sbag0
(g16
g2
Ntp571
Rp572
(dp573
g20
I8
sg21
g65
sg23
(lp574
I50
aI50
asg24
I1
sg25
I100
sg26
g65
sbag0
(g16
g2
Ntp575
Rp576
(dp577
g20
I9
sg21
g70
sg23
F0.95
sg24
F0.01
sg25
F0.99
sg26
g32
sbag0
(g16
g2
Ntp578
Rp579
(dp580
g20
I10
sg21
g74
sg23
I30
sg24
I1
sg25
I300
sg26
g27
sbasg75
(dp581
g22
g545
sg31
g548
sg36
g551
sg40
g554
sg44
g557
sg48
g560
sg54
g564
sg60
g568
sg65
g572
sg70
g576
sg74
g579
ssg77
Nsbag0
(g9
g2
Ntp582
Rp583
(dp584
g13
I10
sg14
(lp585
g0
(g16
g2
Ntp586
Rp587
(dp588
g20
I0
sg21
g22
sg23
I30
sg24
I1
sg25
I300
sg26
g27
sbag0
(g16
g2
Ntp589
Rp590
(dp591
g20
I1
sg21
g31
sg23
I1
sg24
I-1
sg25
I1
sg26
g32
sbag0
(g16
g2
Ntp592
Rp593
(dp594
g20
I2
sg21
g36
sg23
I1
sg24
I-1
sg25
I1
sg26
g32
sbag0
(g16
g2
Ntp595
Rp596
(dp597
g20
I3
sg21
g40
sg23
I1
sg24
I-1
sg25
I1
sg26
g32
sbag0
(g16
g2
Ntp598
Rp599
(dp600
g20
I4
sg21
g44
sg23
I1
sg24
I-1
sg25
I1
sg26
g32
sbag0
(g16
g2
Ntp601
Rp602
(dp603
g20
I5
sg21
g48
sg23
(lp604
I0
aI25
asg24
I0
sg25
I100
sg26
g50
sbag0
(g16
g2
Ntp605
Rp606
(dp607
g20
I6
sg21
g54
sg23
(lp608
I25
aI50
aI75
asg24
I0
sg25
I100
sg26
g56
sbag0
(g16
g2
Ntp609
Rp610
(dp611
g20
I7
sg21
g60
sg23
(lp612
I75
aI100
asg24
I0
sg25
I100
sg26
g50
sbag0
(g16
g2
Ntp613
Rp614
(dp615
g20
I8
sg21
g65
sg23
(lp616
I50
aI50
asg24
I1
sg25
I100
sg26
g65
sbag0
(g16
g2
Ntp617
Rp618
(dp619
g20
I9
sg21
g70
sg23
F0.95
sg24
F0.01
sg25
F0.99
sg26
g32
sbag0
(g16
g2
Ntp620
Rp621
(dp622
g20
I10
sg21
g74
sg23
I30
sg24
I1
sg25
I300
sg26
g27
sbasg75
(dp623
g22
g587
sg31
g590
sg36
g593
sg40
g596
sg44
g599
sg48
g602
sg54
g606
sg60
g610
sg65
g614
sg70
g618
sg74
g621
ssg77
Nsbag0
(g9
g2
Ntp624
Rp625
(dp626
g13
I11
sg14
(lp627
g0
(g16
g2
Ntp628
Rp629
(dp630
g20
I0
sg21
g22
sg23
I30
sg24
I1
sg25
I300
sg26
g27
sbag0
(g16
g2
Ntp631
Rp632
(dp633
g20
I1
sg21
g31
sg23
I1
sg24
I-1
sg25
I1
sg26
g32
sbag0
(g16
g2
Ntp634
Rp635
(dp636
g20
I2
sg21
g36
sg23
I1
sg24
I-1
sg25
I1
sg26
g32
sbag0
(g16
g2
Ntp637
Rp638
(dp639
g20
I3
sg21
g40
sg23
I1
sg24
I-1
sg25
I1
sg26
g32
sbag0
(g16
g2
Ntp640
Rp641
(dp642
g20
I4
sg21
g44
sg23
I1
sg24
I-1
sg25
I1
sg26
g32
sbag0
(g16
g2
Ntp643
Rp644
(dp645
g20
I5
sg21
g48
sg23
(lp646
I0
aI25
asg24
I0
sg25
I100
sg26
g50
sbag0
(g16
g2
Ntp647
Rp648
(dp649
g20
I6
sg21
g54
sg23
(lp650
I25
aI50
aI75
asg24
I0
sg25
I100
sg26
g56
sbag0
(g16
g2
Ntp651
Rp652
(dp653
g20
I7
sg21
g60
sg23
(lp654
I75
aI100
asg24
I0
sg25
I100
sg26
g50
sbag0
(g16
g2
Ntp655
Rp656
(dp657
g20
I8
sg21
g65
sg23
(lp658
I50
aI50
asg24
I1
sg25
I100
sg26
g65
sbag0
(g16
g2
Ntp659
Rp660
(dp661
g20
I9
sg21
g70
sg23
F0.95
sg24
F0.01
sg25
F0.99
sg26
g32
sbag0
(g16
g2
Ntp662
Rp663
(dp664
g20
I10
sg21
g74
sg23
I30
sg24
I1
sg25
I300
sg26
g27
sbasg75
(dp665
g22
g629
sg31
g632
sg36
g635
sg40
g638
sg44
g641
sg48
g644
sg54
g648
sg60
g652
sg65
g656
sg70
g660
sg74
g663
ssg77
Nsbag0
(g9
g2
Ntp666
Rp667
(dp668
g13
I12
sg14
(lp669
g0
(g16
g2
Ntp670
Rp671
(dp672
g20
I0
sg21
g22
sg23
I30
sg24
I1
sg25
I300
sg26
g27
sbag0
(g16
g2
Ntp673
Rp674
(dp675
g20
I1
sg21
g31
sg23
I1
sg24
I-1
sg25
I1
sg26
g32
sbag0
(g16
g2
Ntp676
Rp677
(dp678
g20
I2
sg21
g36
sg23
I1
sg24
I-1
sg25
I1
sg26
g32
sbag0
(g16
g2
Ntp679
Rp680
(dp681
g20
I3
sg21
g40
sg23
I1
sg24
I-1
sg25
I1
sg26
g32
sbag0
(g16
g2
Ntp682
Rp683
(dp684
g20
I4
sg21
g44
sg23
I1
sg24
I-1
sg25
I1
sg26
g32
sbag0
(g16
g2
Ntp685
Rp686
(dp687
g20
I5
sg21
g48
sg23
(lp688
I0
aI25
asg24
I0
sg25
I100
sg26
g50
sbag0
(g16
g2
Ntp689
Rp690
(dp691
g20
I6
sg21
g54
sg23
(lp692
I25
aI50
aI75
asg24
I0
sg25
I100
sg26
g56
sbag0
(g16
g2
Ntp693
Rp694
(dp695
g20
I7
sg21
g60
sg23
(lp696
I75
aI100
asg24
I0
sg25
I100
sg26
g50
sbag0
(g16
g2
Ntp697
Rp698
(dp699
g20
I8
sg21
g65
sg23
(lp700
I50
aI50
asg24
I1
sg25
I100
sg26
g65
sbag0
(g16
g2
Ntp701
Rp702
(dp703
g20
I9
sg21
g70
sg23
F0.95
sg24
F0.01
sg25
F0.99
sg26
g32
sbag0
(g16
g2
Ntp704
Rp705
(dp706
g20
I10
sg21
g74
sg23
I30
sg24
I1
sg25
I300
sg26
g27
sbasg75
(dp707
g22
g671
sg31
g674
sg36
g677
sg40
g680
sg44
g683
sg48
g686
sg54
g690
sg60
g694
sg65
g698
sg70
g702
sg74
g705
ssg77
Nsbag0
(g9
g2
Ntp708
Rp709
(dp710
g13
I13
sg14
(lp711
g0
(g16
g2
Ntp712
Rp713
(dp714
g20
I0
sg21
g22
sg23
I30
sg24
I1
sg25
I300
sg26
g27
sbag0
(g16
g2
Ntp715
Rp716
(dp717
g20
I1
sg21
g31
sg23
I1
sg24
I-1
sg25
I1
sg26
g32
sbag0
(g16
g2
Ntp718
Rp719
(dp720
g20
I2
sg21
g36
sg23
I1
sg24
I-1
sg25
I1
sg26
g32
sbag0
(g16
g2
Ntp721
Rp722
(dp723
g20
I3
sg21
g40
sg23
I1
sg24
I-1
sg25
I1
sg26
g32
sbag0
(g16
g2
Ntp724
Rp725
(dp726
g20
I4
sg21
g44
sg23
I1
sg24
I-1
sg25
I1
sg26
g32
sbag0
(g16
g2
Ntp727
Rp728
(dp729
g20
I5
sg21
g48
sg23
(lp730
I0
aI25
asg24
I0
sg25
I100
sg26
g50
sbag0
(g16
g2
Ntp731
Rp732
(dp733
g20
I6
sg21
g54
sg23
(lp734
I25
aI50
aI75
asg24
I0
sg25
I100
sg26
g56
sbag0
(g16
g2
Ntp735
Rp736
(dp737
g20
I7
sg21
g60
sg23
(lp738
I75
aI100
asg24
I0
sg25
I100
sg26
g50
sbag0
(g16
g2
Ntp739
Rp740
(dp741
g20
I8
sg21
g65
sg23
(lp742
I50
aI50
asg24
I1
sg25
I100
sg26
g65
sbag0
(g16
g2
Ntp743
Rp744
(dp745
g20
I9
sg21
g70
sg23
F0.95
sg24
F0.01
sg25
F0.99
sg26
g32
sbag0
(g16
g2
Ntp746
Rp747
(dp748
g20
I10
sg21
g74
sg23
I30
sg24
I1
sg25
I300
sg26
g27
sbasg75
(dp749
g22
g713
sg31
g716
sg36
g719
sg40
g722
sg44
g725
sg48
g728
sg54
g732
sg60
g736
sg65
g740
sg70
g744
sg74
g747
ssg77
Nsbag0
(g9
g2
Ntp750
Rp751
(dp752
g13
I13
sg14
(lp753
g0
(g16
g2
Ntp754
Rp755
(dp756
g20
I0
sg21
g22
sg23
I30
sg24
I1
sg25
I300
sg26
g27
sbag0
(g16
g2
Ntp757
Rp758
(dp759
g20
I1
sg21
g31
sg23
I1
sg24
I-1
sg25
I1
sg26
g32
sbag0
(g16
g2
Ntp760
Rp761
(dp762
g20
I2
sg21
g36
sg23
I1
sg24
I-1
sg25
I1
sg26
g32
sbag0
(g16
g2
Ntp763
Rp764
(dp765
g20
I3
sg21
g40
sg23
I1
sg24
I-1
sg25
I1
sg26
g32
sbag0
(g16
g2
Ntp766
Rp767
(dp768
g20
I4
sg21
g44
sg23
I1
sg24
I-1
sg25
I1
sg26
g32
sbag0
(g16
g2
Ntp769
Rp770
(dp771
g20
I5
sg21
g48
sg23
(lp772
I0
aI25
asg24
I0
sg25
I100
sg26
g50
sbag0
(g16
g2
Ntp773
Rp774
(dp775
g20
I6
sg21
g54
sg23
(lp776
I25
aI50
aI75
asg24
I0
sg25
I100
sg26
g56
sbag0
(g16
g2
Ntp777
Rp778
(dp779
g20
I7
sg21
g60
sg23
(lp780
I75
aI100
asg24
I0
sg25
I100
sg26
g50
sbag0
(g16
g2
Ntp781
Rp782
(dp783
g20
I8
sg21
g65
sg23
(lp784
I50
aI50
asg24
I1
sg25
I100
sg26
g65
sbag0
(g16
g2
Ntp785
Rp786
(dp787
g20
I9
sg21
g70
sg23
F0.95
sg24
F0.01
sg25
F0.99
sg26
g32
sbag0
(g16
g2
Ntp788
Rp789
(dp790
g20
I10
sg21
g74
sg23
I30
sg24
I1
sg25
I300
sg26
g27
sbasg75
(dp791
g22
g755
sg31
g758
sg36
g761
sg40
g764
sg44
g767
sg48
g770
sg54
g774
sg60
g778
sg65
g782
sg70
g786
sg74
g789
ssg77
Nsbag0
(g9
g2
Ntp792
Rp793
(dp794
g13
I14
sg14
(lp795
g0
(g16
g2
Ntp796
Rp797
(dp798
g20
I0
sg21
g22
sg23
I30
sg24
I1
sg25
I300
sg26
g27
sbag0
(g16
g2
Ntp799
Rp800
(dp801
g20
I1
sg21
g31
sg23
I1
sg24
I-1
sg25
I1
sg26
g32
sbag0
(g16
g2
Ntp802
Rp803
(dp804
g20
I2
sg21
g36
sg23
I1
sg24
I-1
sg25
I1
sg26
g32
sbag0
(g16
g2
Ntp805
Rp806
(dp807
g20
I3
sg21
g40
sg23
I1
sg24
I-1
sg25
I1
sg26
g32
sbag0
(g16
g2
Ntp808
Rp809
(dp810
g20
I4
sg21
g44
sg23
I1
sg24
I-1
sg25
I1
sg26
g32
sbag0
(g16
g2
Ntp811
Rp812
(dp813
g20
I5
sg21
g48
sg23
(lp814
I0
aI25
asg24
I0
sg25
I100
sg26
g50
sbag0
(g16
g2
Ntp815
Rp816
(dp817
g20
I6
sg21
g54
sg23
(lp818
I25
aI50
aI75
asg24
I0
sg25
I100
sg26
g56
sbag0
(g16
g2
Ntp819
Rp820
(dp821
g20
I7
sg21
g60
sg23
(lp822
I75
aI100
asg24
I0
sg25
I100
sg26
g50
sbag0
(g16
g2
Ntp823
Rp824
(dp825
g20
I8
sg21
g65
sg23
(lp826
I50
aI50
asg24
I1
sg25
I100
sg26
g65
sbag0
(g16
g2
Ntp827
Rp828
(dp829
g20
I9
sg21
g70
sg23
F0.95
sg24
F0.01
sg25
F0.99
sg26
g32
sbag0
(g16
g2
Ntp830
Rp831
(dp832
g20
I10
sg21
g74
sg23
I30
sg24
I1
sg25
I300
sg26
g27
sbasg75
(dp833
g22
g797
sg31
g800
sg36
g803
sg40
g806
sg44
g809
sg48
g812
sg54
g816
sg60
g820
sg65
g824
sg70
g828
sg74
g831
ssg77
Nsbag0
(g9
g2
Ntp834
Rp835
(dp836
g13
I15
sg14
(lp837
g0
(g16
g2
Ntp838
Rp839
(dp840
g20
I0
sg21
g22
sg23
I30
sg24
I1
sg25
I300
sg26
g27
sbag0
(g16
g2
Ntp841
Rp842
(dp843
g20
I1
sg21
g31
sg23
I1
sg24
I-1
sg25
I1
sg26
g32
sbag0
(g16
g2
Ntp844
Rp845
(dp846
g20
I2
sg21
g36
sg23
I1
sg24
I-1
sg25
I1
sg26
g32
sbag0
(g16
g2
Ntp847
Rp848
(dp849
g20
I3
sg21
g40
sg23
I1
sg24
I-1
sg25
I1
sg26
g32
sbag0
(g16
g2
Ntp850
Rp851
(dp852
g20
I4
sg21
g44
sg23
I1
sg24
I-1
sg25
I1
sg26
g32
sbag0
(g16
g2
Ntp853
Rp854
(dp855
g20
I5
sg21
g48
sg23
(lp856
I0
aI25
asg24
I0
sg25
I100
sg26
g50
sbag0
(g16
g2
Ntp857
Rp858
(dp859
g20
I6
sg21
g54
sg23
(lp860
I25
aI50
aI75
asg24
I0
sg25
I100
sg26
g56
sbag0
(g16
g2
Ntp861
Rp862
(dp863
g20
I7
sg21
g60
sg23
(lp864
I75
aI100
asg24
I0
sg25
I100
sg26
g50
sbag0
(g16
g2
Ntp865
Rp866
(dp867
g20
I8
sg21
g65
sg23
(lp868
I50
aI50
asg24
I1
sg25
I100
sg26
g65
sbag0
(g16
g2
Ntp869
Rp870
(dp871
g20
I9
sg21
g70
sg23
F0.95
sg24
F0.01
sg25
F0.99
sg26
g32
sbag0
(g16
g2
Ntp872
Rp873
(dp874
g20
I10
sg21
g74
sg23
I30
sg24
I1
sg25
I300
sg26
g27
sbasg75
(dp875
g22
g839
sg31
g842
sg36
g845
sg40
g848
sg44
g851
sg48
g854
sg54
g858
sg60
g862
sg65
g866
sg70
g870
sg74
g873
ssg77
Nsbag0
(g9
g2
Ntp876
Rp877
(dp878
g13
I15
sg14
(lp879
g0
(g16
g2
Ntp880
Rp881
(dp882
g20
I0
sg21
g22
sg23
I30
sg24
I1
sg25
I300
sg26
g27
sbag0
(g16
g2
Ntp883
Rp884
(dp885
g20
I1
sg21
g31
sg23
I1
sg24
I-1
sg25
I1
sg26
g32
sbag0
(g16
g2
Ntp886
Rp887
(dp888
g20
I2
sg21
g36
sg23
I1
sg24
I-1
sg25
I1
sg26
g32
sbag0
(g16
g2
Ntp889
Rp890
(dp891
g20
I3
sg21
g40
sg23
I1
sg24
I-1
sg25
I1
sg26
g32
sbag0
(g16
g2
Ntp892
Rp893
(dp894
g20
I4
sg21
g44
sg23
I1
sg24
I-1
sg25
I1
sg26
g32
sbag0
(g16
g2
Ntp895
Rp896
(dp897
g20
I5
sg21
g48
sg23
(lp898
I0
aI25
asg24
I0
sg25
I100
sg26
g50
sbag0
(g16
g2
Ntp899
Rp900
(dp901
g20
I6
sg21
g54
sg23
(lp902
I25
aI50
aI75
asg24
I0
sg25
I100
sg26
g56
sbag0
(g16
g2
Ntp903
Rp904
(dp905
g20
I7
sg21
g60
sg23
(lp906
I75
aI100
asg24
I0
sg25
I100
sg26
g50
sbag0
(g16
g2
Ntp907
Rp908
(dp909
g20
I8
sg21
g65
sg23
(lp910
I50
aI50
asg24
I1
sg25
I100
sg26
g65
sbag0
(g16
g2
Ntp911
Rp912
(dp913
g20
I9
sg21
g70
sg23
F0.95
sg24
F0.01
sg25
F0.99
sg26
g32
sbag0
(g16
g2
Ntp914
Rp915
(dp916
g20
I10
sg21
g74
sg23
I30
sg24
I1
sg25
I300
sg26
g27
sbasg75
(dp917
g22
g881
sg31
g884
sg36
g887
sg40
g890
sg44
g893
sg48
g896
sg54
g900
sg60
g904
sg65
g908
sg70
g912
sg74
g915
ssg77
Nsbag0
(g9
g2
Ntp918
Rp919
(dp920
g13
I16
sg14
(lp921
g0
(g16
g2
Ntp922
Rp923
(dp924
g20
I0
sg21
g22
sg23
I30
sg24
I1
sg25
I300
sg26
g27
sbag0
(g16
g2
Ntp925
Rp926
(dp927
g20
I1
sg21
g31
sg23
I1
sg24
I-1
sg25
I1
sg26
g32
sbag0
(g16
g2
Ntp928
Rp929
(dp930
g20
I2
sg21
g36
sg23
I1
sg24
I-1
sg25
I1
sg26
g32
sbag0
(g16
g2
Ntp931
Rp932
(dp933
g20
I3
sg21
g40
sg23
I1
sg24
I-1
sg25
I1
sg26
g32
sbag0
(g16
g2
Ntp934
Rp935
(dp936
g20
I4
sg21
g44
sg23
I1
sg24
I-1
sg25
I1
sg26
g32
sbag0
(g16
g2
Ntp937
Rp938
(dp939
g20
I5
sg21
g48
sg23
(lp940
I0
aI25
asg24
I0
sg25
I100
sg26
g50
sbag0
(g16
g2
Ntp941
Rp942
(dp943
g20
I6
sg21
g54
sg23
(lp944
I25
aI50
aI75
asg24
I0
sg25
I100
sg26
g56
sbag0
(g16
g2
Ntp945
Rp946
(dp947
g20
I7
sg21
g60
sg23
(lp948
I75
aI100
asg24
I0
sg25
I100
sg26
g50
sbag0
(g16
g2
Ntp949
Rp950
(dp951
g20
I8
sg21
g65
sg23
(lp952
I50
aI50
asg24
I1
sg25
I100
sg26
g65
sbag0
(g16
g2
Ntp953
Rp954
(dp955
g20
I9
sg21
g70
sg23
F0.95
sg24
F0.01
sg25
F0.99
sg26
g32
sbag0
(g16
g2
Ntp956
Rp957
(dp958
g20
I10
sg21
g74
sg23
I30
sg24
I1
sg25
I300
sg26
g27
sbasg75
(dp959
g22
g923
sg31
g926
sg36
g929
sg40
g932
sg44
g935
sg48
g938
sg54
g942
sg60
g946
sg65
g950
sg70
g954
sg74
g957
ssg77
Nsbag0
(g9
g2
Ntp960
Rp961
(dp962
g13
I17
sg14
(lp963
g0
(g16
g2
Ntp964
Rp965
(dp966
g20
I0
sg21
g22
sg23
I30
sg24
I1
sg25
I300
sg26
g27
sbag0
(g16
g2
Ntp967
Rp968
(dp969
g20
I1
sg21
g31
sg23
I1
sg24
I-1
sg25
I1
sg26
g32
sbag0
(g16
g2
Ntp970
Rp971
(dp972
g20
I2
sg21
g36
sg23
I1
sg24
I-1
sg25
I1
sg26
g32
sbag0
(g16
g2
Ntp973
Rp974
(dp975
g20
I3
sg21
g40
sg23
I1
sg24
I-1
sg25
I1
sg26
g32
sbag0
(g16
g2
Ntp976
Rp977
(dp978
g20
I4
sg21
g44
sg23
I1
sg24
I-1
sg25
I1
sg26
g32
sbag0
(g16
g2
Ntp979
Rp980
(dp981
g20
I5
sg21
g48
sg23
(lp982
I0
aI25
asg24
I0
sg25
I100
sg26
g50
sbag0
(g16
g2
Ntp983
Rp984
(dp985
g20
I6
sg21
g54
sg23
(lp986
I25
aI50
aI75
asg24
I0
sg25
I100
sg26
g56
sbag0
(g16
g2
Ntp987
Rp988
(dp989
g20
I7
sg21
g60
sg23
(lp990
I75
aI100
asg24
I0
sg25
I100
sg26
g50
sbag0
(g16
g2
Ntp991
Rp992
(dp993
g20
I8
sg21
g65
sg23
(lp994
I50
aI50
asg24
I1
sg25
I100
sg26
g65
sbag0
(g16
g2
Ntp995
Rp996
(dp997
g20
I9
sg21
g70
sg23
F0.95
sg24
F0.01
sg25
F0.99
sg26
g32
sbag0
(g16
g2
Ntp998
Rp999
(dp1000
g20
I10
sg21
g74
sg23
I30
sg24
I1
sg25
I300
sg26
g27
sbasg75
(dp1001
g22
g965
sg31
g968
sg36
g971
sg40
g974
sg44
g977
sg48
g980
sg54
g984
sg60
g988
sg65
g992
sg70
g996
sg74
g999
ssg77
Nsbag0
(g9
g2
Ntp1002
Rp1003
(dp1004
g13
I17
sg14
(lp1005
g0
(g16
g2
Ntp1006
Rp1007
(dp1008
g20
I0
sg21
g22
sg23
I30
sg24
I1
sg25
I300
sg26
g27
sbag0
(g16
g2
Ntp1009
Rp1010
(dp1011
g20
I1
sg21
g31
sg23
I1
sg24
I-1
sg25
I1
sg26
g32
sbag0
(g16
g2
Ntp1012
Rp1013
(dp1014
g20
I2
sg21
g36
sg23
I1
sg24
I-1
sg25
I1
sg26
g32
sbag0
(g16
g2
Ntp1015
Rp1016
(dp1017
g20
I3
sg21
g40
sg23
I1
sg24
I-1
sg25
I1
sg26
g32
sbag0
(g16
g2
Ntp1018
Rp1019
(dp1020
g20
I4
sg21
g44
sg23
I1
sg24
I-1
sg25
I1
sg26
g32
sbag0
(g16
g2
Ntp1021
Rp1022
(dp1023
g20
I5
sg21
g48
sg23
(lp1024
I0
aI25
asg24
I0
sg25
I100
sg26
g50
sbag0
(g16
g2
Ntp1025
Rp1026
(dp1027
g20
I6
sg21
g54
sg23
(lp1028
I25
aI50
aI75
asg24
I0
sg25
I100
sg26
g56
sbag0
(g16
g2
Ntp1029
Rp1030
(dp1031
g20
I7
sg21
g60
sg23
(lp1032
I75
aI100
asg24
I0
sg25
I100
sg26
g50
sbag0
(g16
g2
Ntp1033
Rp1034
(dp1035
g20
I8
sg21
g65
sg23
(lp1036
I50
aI50
asg24
I1
sg25
I100
sg26
g65
sbag0
(g16
g2
Ntp1037
Rp1038
(dp1039
g20
I9
sg21
g70
sg23
F0.95
sg24
F0.01
sg25
F0.99
sg26
g32
sbag0
(g16
g2
Ntp1040
Rp1041
(dp1042
g20
I10
sg21
g74
sg23
I30
sg24
I1
sg25
I300
sg26
g27
sbasg75
(dp1043
g22
g1007
sg31
g1010
sg36
g1013
sg40
g1016
sg44
g1019
sg48
g1022
sg54
g1026
sg60
g1030
sg65
g1034
sg70
g1038
sg74
g1041
ssg77
Nsbag0
(g9
g2
Ntp1044
Rp1045
(dp1046
g13
I18
sg14
(lp1047
g0
(g16
g2
Ntp1048
Rp1049
(dp1050
g20
I0
sg21
g22
sg23
I30
sg24
I1
sg25
I300
sg26
g27
sbag0
(g16
g2
Ntp1051
Rp1052
(dp1053
g20
I1
sg21
g31
sg23
I1
sg24
I-1
sg25
I1
sg26
g32
sbag0
(g16
g2
Ntp1054
Rp1055
(dp1056
g20
I2
sg21
g36
sg23
I1
sg24
I-1
sg25
I1
sg26
g32
sbag0
(g16
g2
Ntp1057
Rp1058
(dp1059
g20
I3
sg21
g40
sg23
I1
sg24
I-1
sg25
I1
sg26
g32
sbag0
(g16
g2
Ntp1060
Rp1061
(dp1062
g20
I4
sg21
g44
sg23
I1
sg24
I-1
sg25
I1
sg26
g32
sbag0
(g16
g2
Ntp1063
Rp1064
(dp1065
g20
I5
sg21
g48
sg23
(lp1066
I0
aI25
asg24
I0
sg25
I100
sg26
g50
sbag0
(g16
g2
Ntp1067
Rp1068
(dp1069
g20
I6
sg21
g54
sg23
(lp1070
I25
aI50
aI75
asg24
I0
sg25
I100
sg26
g56
sbag0
(g16
g2
Ntp1071
Rp1072
(dp1073
g20
I7
sg21
g60
sg23
(lp1074
I75
aI100
asg24
I0
sg25
I100
sg26
g50
sbag0
(g16
g2
Ntp1075
Rp1076
(dp1077
g20
I8
sg21
g65
sg23
(lp1078
I50
aI50
asg24
I1
sg25
I100
sg26
g65
sbag0
(g16
g2
Ntp1079
Rp1080
(dp1081
g20
I9
sg21
g70
sg23
F0.95
sg24
F0.01
sg25
F0.99
sg26
g32
sbag0
(g16
g2
Ntp1082
Rp1083
(dp1084
g20
I10
sg21
g74
sg23
I30
sg24
I1
sg25
I300
sg26
g27
sbasg75
(dp1085
g22
g1049
sg31
g1052
sg36
g1055
sg40
g1058
sg44
g1061
sg48
g1064
sg54
g1068
sg60
g1072
sg65
g1076
sg70
g1080
sg74
g1083
ssg77
Nsbag0
(g9
g2
Ntp1086
Rp1087
(dp1088
g13
I19
sg14
(lp1089
g0
(g16
g2
Ntp1090
Rp1091
(dp1092
g20
I0
sg21
g22
sg23
I30
sg24
I1
sg25
I300
sg26
g27
sbag0
(g16
g2
Ntp1093
Rp1094
(dp1095
g20
I1
sg21
g31
sg23
I1
sg24
I-1
sg25
I1
sg26
g32
sbag0
(g16
g2
Ntp1096
Rp1097
(dp1098
g20
I2
sg21
g36
sg23
I1
sg24
I-1
sg25
I1
sg26
g32
sbag0
(g16
g2
Ntp1099
Rp1100
(dp1101
g20
I3
sg21
g40
sg23
I1
sg24
I-1
sg25
I1
sg26
g32
sbag0
(g16
g2
Ntp1102
Rp1103
(dp1104
g20
I4
sg21
g44
sg23
I1
sg24
I-1
sg25
I1
sg26
g32
sbag0
(g16
g2
Ntp1105
Rp1106
(dp1107
g20
I5
sg21
g48
sg23
(lp1108
I0
aI25
asg24
I0
sg25
I100
sg26
g50
sbag0
(g16
g2
Ntp1109
Rp1110
(dp1111
g20
I6
sg21
g54
sg23
(lp1112
I25
aI50
aI75
asg24
I0
sg25
I100
sg26
g56
sbag0
(g16
g2
Ntp1113
Rp1114
(dp1115
g20
I7
sg21
g60
sg23
(lp1116
I75
aI100
asg24
I0
sg25
I100
sg26
g50
sbag0
(g16
g2
Ntp1117
Rp1118
(dp1119
g20
I8
sg21
g65
sg23
(lp1120
I50
aI50
asg24
I1
sg25
I100
sg26
g65
sbag0
(g16
g2
Ntp1121
Rp1122
(dp1123
g20
I9
sg21
g70
sg23
F0.95
sg24
F0.01
sg25
F0.99
sg26
g32
sbag0
(g16
g2
Ntp1124
Rp1125
(dp1126
g20
I10
sg21
g74
sg23
I30
sg24
I1
sg25
I300
sg26
g27
sbasg75
(dp1127
g22
g1091
sg31
g1094
sg36
g1097
sg40
g1100
sg44
g1103
sg48
g1106
sg54
g1110
sg60
g1114
sg65
g1118
sg70
g1122
sg74
g1125
ssg77
Nsbag0
(g9
g2
Ntp1128
Rp1129
(dp1130
g13
I19
sg14
(lp1131
g0
(g16
g2
Ntp1132
Rp1133
(dp1134
g20
I0
sg21
g22
sg23
I30
sg24
I1
sg25
I300
sg26
g27
sbag0
(g16
g2
Ntp1135
Rp1136
(dp1137
g20
I1
sg21
g31
sg23
I1
sg24
I-1
sg25
I1
sg26
g32
sbag0
(g16
g2
Ntp1138
Rp1139
(dp1140
g20
I2
sg21
g36
sg23
I1
sg24
I-1
sg25
I1
sg26
g32
sbag0
(g16
g2
Ntp1141
Rp1142
(dp1143
g20
I3
sg21
g40
sg23
I1
sg24
I-1
sg25
I1
sg26
g32
sbag0
(g16
g2
Ntp1144
Rp1145
(dp1146
g20
I4
sg21
g44
sg23
I1
sg24
I-1
sg25
I1
sg26
g32
sbag0
(g16
g2
Ntp1147
Rp1148
(dp1149
g20
I5
sg21
g48
sg23
(lp1150
I0
aI25
asg24
I0
sg25
I100
sg26
g50
sbag0
(g16
g2
Ntp1151
Rp1152
(dp1153
g20
I6
sg21
g54
sg23
(lp1154
I25
aI50
aI75
asg24
I0
sg25
I100
sg26
g56
sbag0
(g16
g2
Ntp1155
Rp1156
(dp1157
g20
I7
sg21
g60
sg23
(lp1158
I75
aI100
asg24
I0
sg25
I100
sg26
g50
sbag0
(g16
g2
Ntp1159
Rp1160
(dp1161
g20
I8
sg21
g65
sg23
(lp1162
I50
aI50
asg24
I1
sg25
I100
sg26
g65
sbag0
(g16
g2
Ntp1163
Rp1164
(dp1165
g20
I9
sg21
g70
sg23
F0.95
sg24
F0.01
sg25
F0.99
sg26
g32
sbag0
(g16
g2
Ntp1166
Rp1167
(dp1168
g20
I10
sg21
g74
sg23
I30
sg24
I1
sg25
I300
sg26
g27
sbasg75
(dp1169
g22
g1133
sg31
g1136
sg36
g1139
sg40
g1142
sg44
g1145
sg48
g1148
sg54
g1152
sg60
g1156
sg65
g1160
sg70
g1164
sg74
g1167
ssg77
Nsbag0
(g9
g2
Ntp1170
Rp1171
(dp1172
g13
I20
sg14
(lp1173
g0
(g16
g2
Ntp1174
Rp1175
(dp1176
g20
I0
sg21
g22
sg23
I30
sg24
I1
sg25
I300
sg26
g27
sbag0
(g16
g2
Ntp1177
Rp1178
(dp1179
g20
I1
sg21
g31
sg23
I1
sg24
I-1
sg25
I1
sg26
g32
sbag0
(g16
g2
Ntp1180
Rp1181
(dp1182
g20
I2
sg21
g36
sg23
I1
sg24
I-1
sg25
I1
sg26
g32
sbag0
(g16
g2
Ntp1183
Rp1184
(dp1185
g20
I3
sg21
g40
sg23
I1
sg24
I-1
sg25
I1
sg26
g32
sbag0
(g16
g2
Ntp1186
Rp1187
(dp1188
g20
I4
sg21
g44
sg23
I1
sg24
I-1
sg25
I1
sg26
g32
sbag0
(g16
g2
Ntp1189
Rp1190
(dp1191
g20
I5
sg21
g48
sg23
(lp1192
I0
aI25
asg24
I0
sg25
I100
sg26
g50
sbag0
(g16
g2
Ntp1193
Rp1194
(dp1195
g20
I6
sg21
g54
sg23
(lp1196
I25
aI50
aI75
asg24
I0
sg25
I100
sg26
g56
sbag0
(g16
g2
Ntp1197
Rp1198
(dp1199
g20
I7
sg21
g60
sg23
(lp1200
I75
aI100
asg24
I0
sg25
I100
sg26
g50
sbag0
(g16
g2
Ntp1201
Rp1202
(dp1203
g20
I8
sg21
g65
sg23
(lp1204
I50
aI50
asg24
I1
sg25
I100
sg26
g65
sbag0
(g16
g2
Ntp1205
Rp1206
(dp1207
g20
I9
sg21
g70
sg23
F0.95
sg24
F0.01
sg25
F0.99
sg26
g32
sbag0
(g16
g2
Ntp1208
Rp1209
(dp1210
g20
I10
sg21
g74
sg23
I30
sg24
I1
sg25
I300
sg26
g27
sbasg75
(dp1211
g22
g1175
sg31
g1178
sg36
g1181
sg40
g1184
sg44
g1187
sg48
g1190
sg54
g1194
sg60
g1198
sg65
g1202
sg70
g1206
sg74
g1209
ssg77
Nsbag0
(g9
g2
Ntp1212
Rp1213
(dp1214
g13
I21
sg14
(lp1215
g0
(g16
g2
Ntp1216
Rp1217
(dp1218
g20
I0
sg21
g22
sg23
I30
sg24
I1
sg25
I300
sg26
g27
sbag0
(g16
g2
Ntp1219
Rp1220
(dp1221
g20
I1
sg21
g31
sg23
I1
sg24
I-1
sg25
I1
sg26
g32
sbag0
(g16
g2
Ntp1222
Rp1223
(dp1224
g20
I2
sg21
g36
sg23
I1
sg24
I-1
sg25
I1
sg26
g32
sbag0
(g16
g2
Ntp1225
Rp1226
(dp1227
g20
I3
sg21
g40
sg23
I1
sg24
I-1
sg25
I1
sg26
g32
sbag0
(g16
g2
Ntp1228
Rp1229
(dp1230
g20
I4
sg21
g44
sg23
I1
sg24
I-1
sg25
I1
sg26
g32
sbag0
(g16
g2
Ntp1231
Rp1232
(dp1233
g20
I5
sg21
g48
sg23
(lp1234
I0
aI25
asg24
I0
sg25
I100
sg26
g50
sbag0
(g16
g2
Ntp1235
Rp1236
(dp1237
g20
I6
sg21
g54
sg23
(lp1238
I25
aI50
aI75
asg24
I0
sg25
I100
sg26
g56
sbag0
(g16
g2
Ntp1239
Rp1240
(dp1241
g20
I7
sg21
g60
sg23
(lp1242
I75
aI100
asg24
I0
sg25
I100
sg26
g50
sbag0
(g16
g2
Ntp1243
Rp1244
(dp1245
g20
I8
sg21
g65
sg23
(lp1246
I50
aI50
asg24
I1
sg25
I100
sg26
g65
sbag0
(g16
g2
Ntp1247
Rp1248
(dp1249
g20
I9
sg21
g70
sg23
F0.95
sg24
F0.01
sg25
F0.99
sg26
g32
sbag0
(g16
g2
Ntp1250
Rp1251
(dp1252
g20
I10
sg21
g74
sg23
I30
sg24
I1
sg25
I300
sg26
g27
sbasg75
(dp1253
g22
g1217
sg31
g1220
sg36
g1223
sg40
g1226
sg44
g1229
sg48
g1232
sg54
g1236
sg60
g1240
sg65
g1244
sg70
g1248
sg74
g1251
ssg77
Nsbag0
(g9
g2
Ntp1254
Rp1255
(dp1256
g13
I21
sg14
(lp1257
g0
(g16
g2
Ntp1258
Rp1259
(dp1260
g20
I0
sg21
g22
sg23
I30
sg24
I1
sg25
I300
sg26
g27
sbag0
(g16
g2
Ntp1261
Rp1262
(dp1263
g20
I1
sg21
g31
sg23
I1
sg24
I-1
sg25
I1
sg26
g32
sbag0
(g16
g2
Ntp1264
Rp1265
(dp1266
g20
I2
sg21
g36
sg23
I1
sg24
I-1
sg25
I1
sg26
g32
sbag0
(g16
g2
Ntp1267
Rp1268
(dp1269
g20
I3
sg21
g40
sg23
I1
sg24
I-1
sg25
I1
sg26
g32
sbag0
(g16
g2
Ntp1270
Rp1271
(dp1272
g20
I4
sg21
g44
sg23
I1
sg24
I-1
sg25
I1
sg26
g32
sbag0
(g16
g2
Ntp1273
Rp1274
(dp1275
g20
I5
sg21
g48
sg23
(lp1276
I0
aI25
asg24
I0
sg25
I100
sg26
g50
sbag0
(g16
g2
Ntp1277
Rp1278
(dp1279
g20
I6
sg21
g54
sg23
(lp1280
I25
aI50
aI75
asg24
I0
sg25
I100
sg26
g56
sbag0
(g16
g2
Ntp1281
Rp1282
(dp1283
g20
I7
sg21
g60
sg23
(lp1284
I75
aI100
asg24
I0
sg25
I100
sg26
g50
sbag0
(g16
g2
Ntp1285
Rp1286
(dp1287
g20
I8
sg21
g65
sg23
(lp1288
I50
aI50
asg24
I1
sg25
I100
sg26
g65
sbag0
(g16
g2
Ntp1289
Rp1290
(dp1291
g20
I9
sg21
g70
sg23
F0.95
sg24
F0.01
sg25
F0.99
sg26
g32
sbag0
(g16
g2
Ntp1292
Rp1293
(dp1294
g20
I10
sg21
g74
sg23
I30
sg24
I1
sg25
I300
sg26
g27
sbasg75
(dp1295
g22
g1259
sg31
g1262
sg36
g1265
sg40
g1268
sg44
g1271
sg48
g1274
sg54
g1278
sg60
g1282
sg65
g1286
sg70
g1290
sg74
g1293
ssg77
Nsbag0
(g9
g2
Ntp1296
Rp1297
(dp1298
g13
I22
sg14
(lp1299
g0
(g16
g2
Ntp1300
Rp1301
(dp1302
g20
I0
sg21
g22
sg23
I30
sg24
I1
sg25
I300
sg26
g27
sbag0
(g16
g2
Ntp1303
Rp1304
(dp1305
g20
I1
sg21
g31
sg23
I1
sg24
I-1
sg25
I1
sg26
g32
sbag0
(g16
g2
Ntp1306
Rp1307
(dp1308
g20
I2
sg21
g36
sg23
I1
sg24
I-1
sg25
I1
sg26
g32
sbag0
(g16
g2
Ntp1309
Rp1310
(dp1311
g20
I3
sg21
g40
sg23
I1
sg24
I-1
sg25
I1
sg26
g32
sbag0
(g16
g2
Ntp1312
Rp1313
(dp1314
g20
I4
sg21
g44
sg23
I1
sg24
I-1
sg25
I1
sg26
g32
sbag0
(g16
g2
Ntp1315
Rp1316
(dp1317
g20
I5
sg21
g48
sg23
(lp1318
I0
aI25
asg24
I0
sg25
I100
sg26
g50
sbag0
(g16
g2
Ntp1319
Rp1320
(dp1321
g20
I6
sg21
g54
sg23
(lp1322
I25
aI50
aI75
asg24
I0
sg25
I100
sg26
g56
sbag0
(g16
g2
Ntp1323
Rp1324
(dp1325
g20
I7
sg21
g60
sg23
(lp1326
I75
aI100
asg24
I0
sg25
I100
sg26
g50
sbag0
(g16
g2
Ntp1327
Rp1328
(dp1329
g20
I8
sg21
g65
sg23
(lp1330
I50
aI50
asg24
I1
sg25
I100
sg26
g65
sbag0
(g16
g2
Ntp1331
Rp1332
(dp1333
g20
I9
sg21
g70
sg23
F0.95
sg24
F0.01
sg25
F0.99
sg26
g32
sbag0
(g16
g2
Ntp1334
Rp1335
(dp1336
g20
I10
sg21
g74
sg23
I30
sg24
I1
sg25
I300
sg26
g27
sbasg75
(dp1337
g22
g1301
sg31
g1304
sg36
g1307
sg40
g1310
sg44
g1313
sg48
g1316
sg54
g1320
sg60
g1324
sg65
g1328
sg70
g1332
sg74
g1335
ssg77
Nsbag0
(g9
g2
Ntp1338
Rp1339
(dp1340
g13
I23
sg14
(lp1341
g0
(g16
g2
Ntp1342
Rp1343
(dp1344
g20
I0
sg21
g22
sg23
I30
sg24
I1
sg25
I300
sg26
g27
sbag0
(g16
g2
Ntp1345
Rp1346
(dp1347
g20
I1
sg21
g31
sg23
I1
sg24
I-1
sg25
I1
sg26
g32
sbag0
(g16
g2
Ntp1348
Rp1349
(dp1350
g20
I2
sg21
g36
sg23
I1
sg24
I-1
sg25
I1
sg26
g32
sbag0
(g16
g2
Ntp1351
Rp1352
(dp1353
g20
I3
sg21
g40
sg23
I1
sg24
I-1
sg25
I1
sg26
g32
sbag0
(g16
g2
Ntp1354
Rp1355
(dp1356
g20
I4
sg21
g44
sg23
I1
sg24
I-1
sg25
I1
sg26
g32
sbag0
(g16
g2
Ntp1357
Rp1358
(dp1359
g20
I5
sg21
g48
sg23
(lp1360
I0
aI25
asg24
I0
sg25
I100
sg26
g50
sbag0
(g16
g2
Ntp1361
Rp1362
(dp1363
g20
I6
sg21
g54
sg23
(lp1364
I25
aI50
aI75
asg24
I0
sg25
I100
sg26
g56
sbag0
(g16
g2
Ntp1365
Rp1366
(dp1367
g20
I7
sg21
g60
sg23
(lp1368
I75
aI100
asg24
I0
sg25
I100
sg26
g50
sbag0
(g16
g2
Ntp1369
Rp1370
(dp1371
g20
I8
sg21
g65
sg23
(lp1372
I50
aI50
asg24
I1
sg25
I100
sg26
g65
sbag0
(g16
g2
Ntp1373
Rp1374
(dp1375
g20
I9
sg21
g70
sg23
F0.95
sg24
F0.01
sg25
F0.99
sg26
g32
sbag0
(g16
g2
Ntp1376
Rp1377
(dp1378
g20
I10
sg21
g74
sg23
I30
sg24
I1
sg25
I300
sg26
g27
sbasg75
(dp1379
g22
g1343
sg31
g1346
sg36
g1349
sg40
g1352
sg44
g1355
sg48
g1358
sg54
g1362
sg60
g1366
sg65
g1370
sg70
g1374
sg74
g1377
ssg77
Nsbag0
(g9
g2
Ntp1380
Rp1381
(dp1382
g13
I23
sg14
(lp1383
g0
(g16
g2
Ntp1384
Rp1385
(dp1386
g20
I0
sg21
g22
sg23
I30
sg24
I1
sg25
I300
sg26
g27
sbag0
(g16
g2
Ntp1387
Rp1388
(dp1389
g20
I1
sg21
g31
sg23
I1
sg24
I-1
sg25
I1
sg26
g32
sbag0
(g16
g2
Ntp1390
Rp1391
(dp1392
g20
I2
sg21
g36
sg23
I1
sg24
I-1
sg25
I1
sg26
g32
sbag0
(g16
g2
Ntp1393
Rp1394
(dp1395
g20
I3
sg21
g40
sg23
I1
sg24
I-1
sg25
I1
sg26
g32
sbag0
(g16
g2
Ntp1396
Rp1397
(dp1398
g20
I4
sg21
g44
sg23
I1
sg24
I-1
sg25
I1
sg26
g32
sbag0
(g16
g2
Ntp1399
Rp1400
(dp1401
g20
I5
sg21
g48
sg23
(lp1402
I0
aI25
asg24
I0
sg25
I100
sg26
g50
sbag0
(g16
g2
Ntp1403
Rp1404
(dp1405
g20
I6
sg21
g54
sg23
(lp1406
I25
aI50
aI75
asg24
I0
sg25
I100
sg26
g56
sbag0
(g16
g2
Ntp1407
Rp1408
(dp1409
g20
I7
sg21
g60
sg23
(lp1410
I75
aI100
asg24
I0
sg25
I100
sg26
g50
sbag0
(g16
g2
Ntp1411
Rp1412
(dp1413
g20
I8
sg21
g65
sg23
(lp1414
I50
aI50
asg24
I1
sg25
I100
sg26
g65
sbag0
(g16
g2
Ntp1415
Rp1416
(dp1417
g20
I9
sg21
g70
sg23
F0.95
sg24
F0.01
sg25
F0.99
sg26
g32
sbag0
(g16
g2
Ntp1418
Rp1419
(dp1420
g20
I10
sg21
g74
sg23
I30
sg24
I1
sg25
I300
sg26
g27
sbasg75
(dp1421
g22
g1385
sg31
g1388
sg36
g1391
sg40
g1394
sg44
g1397
sg48
g1400
sg54
g1404
sg60
g1408
sg65
g1412
sg70
g1416
sg74
g1419
ssg77
Nsbag0
(g9
g2
Ntp1422
Rp1423
(dp1424
g13
I24
sg14
(lp1425
g0
(g16
g2
Ntp1426
Rp1427
(dp1428
g20
I0
sg21
g22
sg23
I30
sg24
I1
sg25
I300
sg26
g27
sbag0
(g16
g2
Ntp1429
Rp1430
(dp1431
g20
I1
sg21
g31
sg23
I1
sg24
I-1
sg25
I1
sg26
g32
sbag0
(g16
g2
Ntp1432
Rp1433
(dp1434
g20
I2
sg21
g36
sg23
I1
sg24
I-1
sg25
I1
sg26
g32
sbag0
(g16
g2
Ntp1435
Rp1436
(dp1437
g20
I3
sg21
g40
sg23
I1
sg24
I-1
sg25
I1
sg26
g32
sbag0
(g16
g2
Ntp1438
Rp1439
(dp1440
g20
I4
sg21
g44
sg23
I1
sg24
I-1
sg25
I1
sg26
g32
sbag0
(g16
g2
Ntp1441
Rp1442
(dp1443
g20
I5
sg21
g48
sg23
(lp1444
I0
aI25
asg24
I0
sg25
I100
sg26
g50
sbag0
(g16
g2
Ntp1445
Rp1446
(dp1447
g20
I6
sg21
g54
sg23
(lp1448
I25
aI50
aI75
asg24
I0
sg25
I100
sg26
g56
sbag0
(g16
g2
Ntp1449
Rp1450
(dp1451
g20
I7
sg21
g60
sg23
(lp1452
I75
aI100
asg24
I0
sg25
I100
sg26
g50
sbag0
(g16
g2
Ntp1453
Rp1454
(dp1455
g20
I8
sg21
g65
sg23
(lp1456
I50
aI50
asg24
I1
sg25
I100
sg26
g65
sbag0
(g16
g2
Ntp1457
Rp1458
(dp1459
g20
I9
sg21
g70
sg23
F0.95
sg24
F0.01
sg25
F0.99
sg26
g32
sbag0
(g16
g2
Ntp1460
Rp1461
(dp1462
g20
I10
sg21
g74
sg23
I30
sg24
I1
sg25
I300
sg26
g27
sbasg75
(dp1463
g22
g1427
sg31
g1430
sg36
g1433
sg40
g1436
sg44
g1439
sg48
g1442
sg54
g1446
sg60
g1450
sg65
g1454
sg70
g1458
sg74
g1461
ssg77
Nsbag0
(g9
g2
Ntp1464
Rp1465
(dp1466
g13
I25
sg14
(lp1467
g0
(g16
g2
Ntp1468
Rp1469
(dp1470
g20
I0
sg21
g22
sg23
I30
sg24
I1
sg25
I300
sg26
g27
sbag0
(g16
g2
Ntp1471
Rp1472
(dp1473
g20
I1
sg21
g31
sg23
I1
sg24
I-1
sg25
I1
sg26
g32
sbag0
(g16
g2
Ntp1474
Rp1475
(dp1476
g20
I2
sg21
g36
sg23
I1
sg24
I-1
sg25
I1
sg26
g32
sbag0
(g16
g2
Ntp1477
Rp1478
(dp1479
g20
I3
sg21
g40
sg23
I1
sg24
I-1
sg25
I1
sg26
g32
sbag0
(g16
g2
Ntp1480
Rp1481
(dp1482
g20
I4
sg21
g44
sg23
I1
sg24
I-1
sg25
I1
sg26
g32
sbag0
(g16
g2
Ntp1483
Rp1484
(dp1485
g20
I5
sg21
g48
sg23
(lp1486
I0
aI25
asg24
I0
sg25
I100
sg26
g50
sbag0
(g16
g2
Ntp1487
Rp1488
(dp1489
g20
I6
sg21
g54
sg23
(lp1490
I25
aI50
aI75
asg24
I0
sg25
I100
sg26
g56
sbag0
(g16
g2
Ntp1491
Rp1492
(dp1493
g20
I7
sg21
g60
sg23
(lp1494
I75
aI100
asg24
I0
sg25
I100
sg26
g50
sbag0
(g16
g2
Ntp1495
Rp1496
(dp1497
g20
I8
sg21
g65
sg23
(lp1498
I50
aI50
asg24
I1
sg25
I100
sg26
g65
sbag0
(g16
g2
Ntp1499
Rp1500
(dp1501
g20
I9
sg21
g70
sg23
F0.95
sg24
F0.01
sg25
F0.99
sg26
g32
sbag0
(g16
g2
Ntp1502
Rp1503
(dp1504
g20
I10
sg21
g74
sg23
I30
sg24
I1
sg25
I300
sg26
g27
sbasg75
(dp1505
g22
g1469
sg31
g1472
sg36
g1475
sg40
g1478
sg44
g1481
sg48
g1484
sg54
g1488
sg60
g1492
sg65
g1496
sg70
g1500
sg74
g1503
ssg77
Nsbag0
(g9
g2
Ntp1506
Rp1507
(dp1508
g13
I26
sg14
(lp1509
g0
(g16
g2
Ntp1510
Rp1511
(dp1512
g20
I0
sg21
g22
sg23
I30
sg24
I1
sg25
I300
sg26
g27
sbag0
(g16
g2
Ntp1513
Rp1514
(dp1515
g20
I1
sg21
g31
sg23
I1
sg24
I-1
sg25
I1
sg26
g32
sbag0
(g16
g2
Ntp1516
Rp1517
(dp1518
g20
I2
sg21
g36
sg23
I1
sg24
I-1
sg25
I1
sg26
g32
sbag0
(g16
g2
Ntp1519
Rp1520
(dp1521
g20
I3
sg21
g40
sg23
I1
sg24
I-1
sg25
I1
sg26
g32
sbag0
(g16
g2
Ntp1522
Rp1523
(dp1524
g20
I4
sg21
g44
sg23
I1
sg24
I-1
sg25
I1
sg26
g32
sbag0
(g16
g2
Ntp1525
Rp1526
(dp1527
g20
I5
sg21
g48
sg23
(lp1528
I0
aI25
asg24
I0
sg25
I100
sg26
g50
sbag0
(g16
g2
Ntp1529
Rp1530
(dp1531
g20
I6
sg21
g54
sg23
(lp1532
I25
aI50
aI75
asg24
I0
sg25
I100
sg26
g56
sbag0
(g16
g2
Ntp1533
Rp1534
(dp1535
g20
I7
sg21
g60
sg23
(lp1536
I75
aI100
asg24
I0
sg25
I100
sg26
g50
sbag0
(g16
g2
Ntp1537
Rp1538
(dp1539
g20
I8
sg21
g65
sg23
(lp1540
I50
aI50
asg24
I1
sg25
I100
sg26
g65
sbag0
(g16
g2
Ntp1541
Rp1542
(dp1543
g20
I9
sg21
g70
sg23
F0.95
sg24
F0.01
sg25
F0.99
sg26
g32
sbag0
(g16
g2
Ntp1544
Rp1545
(dp1546
g20
I10
sg21
g74
sg23
I30
sg24
I1
sg25
I300
sg26
g27
sbasg75
(dp1547
g22
g1511
sg31
g1514
sg36
g1517
sg40
g1520
sg44
g1523
sg48
g1526
sg54
g1530
sg60
g1534
sg65
g1538
sg70
g1542
sg74
g1545
ssg77
Nsbag0
(g9
g2
Ntp1548
Rp1549
(dp1550
g13
I26
sg14
(lp1551
g0
(g16
g2
Ntp1552
Rp1553
(dp1554
g20
I0
sg21
g22
sg23
I30
sg24
I1
sg25
I300
sg26
g27
sbag0
(g16
g2
Ntp1555
Rp1556
(dp1557
g20
I1
sg21
g31
sg23
I1
sg24
I-1
sg25
I1
sg26
g32
sbag0
(g16
g2
Ntp1558
Rp1559
(dp1560
g20
I2
sg21
g36
sg23
I1
sg24
I-1
sg25
I1
sg26
g32
sbag0
(g16
g2
Ntp1561
Rp1562
(dp1563
g20
I3
sg21
g40
sg23
I1
sg24
I-1
sg25
I1
sg26
g32
sbag0
(g16
g2
Ntp1564
Rp1565
(dp1566
g20
I4
sg21
g44
sg23
I1
sg24
I-1
sg25
I1
sg26
g32
sbag0
(g16
g2
Ntp1567
Rp1568
(dp1569
g20
I5
sg21
g48
sg23
(lp1570
I0
aI25
asg24
I0
sg25
I100
sg26
g50
sbag0
(g16
g2
Ntp1571
Rp1572
(dp1573
g20
I6
sg21
g54
sg23
(lp1574
I25
aI50
aI75
asg24
I0
sg25
I100
sg26
g56
sbag0
(g16
g2
Ntp1575
Rp1576
(dp1577
g20
I7
sg21
g60
sg23
(lp1578
I75
aI100
asg24
I0
sg25
I100
sg26
g50
sbag0
(g16
g2
Ntp1579
Rp1580
(dp1581
g20
I8
sg21
g65
sg23
(lp1582
I50
aI50
asg24
I1
sg25
I100
sg26
g65
sbag0
(g16
g2
Ntp1583
Rp1584
(dp1585
g20
I9
sg21
g70
sg23
F0.95
sg24
F0.01
sg25
F0.99
sg26
g32
sbag0
(g16
g2
Ntp1586
Rp1587
(dp1588
g20
I10
sg21
g74
sg23
I30
sg24
I1
sg25
I300
sg26
g27
sbasg75
(dp1589
g22
g1553
sg31
g1556
sg36
g1559
sg40
g1562
sg44
g1565
sg48
g1568
sg54
g1572
sg60
g1576
sg65
g1580
sg70
g1584
sg74
g1587
ssg77
Nsbag0
(g9
g2
Ntp1590
Rp1591
(dp1592
g13
I132
sg14
(lp1593
g0
(g16
g2
Ntp1594
Rp1595
(dp1596
g20
I11
sg21
g22
sg23
I212
sg24
I1
sg25
I300
sg26
g27
sbag0
(g16
g2
Ntp1597
Rp1598
(dp1599
g20
I12
sg21
g31
sg23
F0.7356226176050575
sg24
I-1
sg25
I1
sg26
g32
sbag0
(g16
g2
Ntp1600
Rp1601
(dp1602
g20
I13
sg21
g36
sg23
F-0.19499896864377808
sg24
I-1
sg25
I1
sg26
g32
sbag0
(g16
g2
Ntp1603
Rp1604
(dp1605
g20
I14
sg21
g40
sg23
F0.6553687374010722
sg24
I-1
sg25
I1
sg26
g32
sbag0
(g16
g2
Ntp1606
Rp1607
(dp1608
g20
I15
sg21
g44
sg23
F-0.995623049918074
sg24
I-1
sg25
I1
sg26
g32
sbag0
(g16
g2
Ntp1609
Rp1610
(dp1611
g20
I16
sg21
g48
sg23
(lp1612
F79.79378759609878
aF95.48674221295862
asg24
I0
sg25
I100
sg26
g50
sbag0
(g16
g2
Ntp1613
Rp1614
(dp1615
g20
I17
sg21
g54
sg23
(lp1616
F25.299346036955733
aF30.4537501690068
aF72.52181701608436
asg24
I0
sg25
I100
sg26
g56
sbag0
(g16
g2
Ntp1617
Rp1618
(dp1619
g20
I18
sg21
g60
sg23
(lp1620
F27.77356404517445
aF89.272223203209
asg24
I0
sg25
I100
sg26
g50
sbag0
(g16
g2
Ntp1621
Rp1622
(dp1623
g20
I19
sg21
g65
sg23
(lp1624
F7.542581812908014
aF31.229844855853475
asg24
I1
sg25
I100
sg26
g65
sbag0
(g16
g2
Ntp1625
Rp1626
(dp1627
g20
I20
sg21
g70
sg23
F0.40150366520751796
sg24
F0.01
sg25
F0.99
sg26
g32
sbag0
(g16
g2
Ntp1628
Rp1629
(dp1630
g20
I21
sg21
g74
sg23
I142
sg24
I1
sg25
I300
sg26
g27
sbasg75
(dp1631
g22
g1595
sg31
g1598
sg36
g1601
sg40
g1604
sg44
g1607
sg48
g1610
sg54
g1614
sg60
g1618
sg65
g1622
sg70
g1626
sg74
g1629
ssg77
Nsbag0
(g9
g2
Ntp1632
Rp1633
(dp1634
g13
I132
sg14
(lp1635
g0
(g16
g2
Ntp1636
Rp1637
(dp1638
g20
I11
sg21
g22
sg23
I212
sg24
I1
sg25
I300
sg26
g27
sbag0
(g16
g2
Ntp1639
Rp1640
(dp1641
g20
I12
sg21
g31
sg23
F0.7356226176050575
sg24
I-1
sg25
I1
sg26
g32
sbag0
(g16
g2
Ntp1642
Rp1643
(dp1644
g20
I13
sg21
g36
sg23
F-0.19499896864377808
sg24
I-1
sg25
I1
sg26
g32
sbag0
(g16
g2
Ntp1645
Rp1646
(dp1647
g20
I14
sg21
g40
sg23
F0.6553687374010722
sg24
I-1
sg25
I1
sg26
g32
sbag0
(g16
g2
Ntp1648
Rp1649
(dp1650
g20
I15
sg21
g44
sg23
F-0.995623049918074
sg24
I-1
sg25
I1
sg26
g32
sbag0
(g16
g2
Ntp1651
Rp1652
(dp1653
g20
I16
sg21
g48
sg23
(lp1654
F79.79378759609878
aF95.48674221295862
asg24
I0
sg25
I100
sg26
g50
sbag0
(g16
g2
Ntp1655
Rp1656
(dp1657
g20
I17
sg21
g54
sg23
(lp1658
F25.299346036955733
aF30.4537501690068
aF72.52181701608436
asg24
I0
sg25
I100
sg26
g56
sbag0
(g16
g2
Ntp1659
Rp1660
(dp1661
g20
I18
sg21
g60
sg23
(lp1662
F27.77356404517445
aF89.272223203209
asg24
I0
sg25
I100
sg26
g50
sbag0
(g16
g2
Ntp1663
Rp1664
(dp1665
g20
I19
sg21
g65
sg23
(lp1666
F7.542581812908014
aF31.229844855853475
asg24
I1
sg25
I100
sg26
g65
sbag0
(g16
g2
Ntp1667
Rp1668
(dp1669
g20
I20
sg21
g70
sg23
F0.40150366520751796
sg24
F0.01
sg25
F0.99
sg26
g32
sbag0
(g16
g2
Ntp1670
Rp1671
(dp1672
g20
I21
sg21
g74
sg23
I142
sg24
I1
sg25
I300
sg26
g27
sbasg75
(dp1673
g22
g1637
sg31
g1640
sg36
g1643
sg40
g1646
sg44
g1649
sg48
g1652
sg54
g1656
sg60
g1660
sg65
g1664
sg70
g1668
sg74
g1671
ssg77
Nsbag0
(g9
g2
Ntp1674
Rp1675
(dp1676
g13
I132
sg14
(lp1677
g0
(g16
g2
Ntp1678
Rp1679
(dp1680
g20
I11
sg21
g22
sg23
I212
sg24
I1
sg25
I300
sg26
g27
sbag0
(g16
g2
Ntp1681
Rp1682
(dp1683
g20
I12
sg21
g31
sg23
F0.7356226176050575
sg24
I-1
sg25
I1
sg26
g32
sbag0
(g16
g2
Ntp1684
Rp1685
(dp1686
g20
I13
sg21
g36
sg23
F-0.19499896864377808
sg24
I-1
sg25
I1
sg26
g32
sbag0
(g16
g2
Ntp1687
Rp1688
(dp1689
g20
I14
sg21
g40
sg23
F0.6553687374010722
sg24
I-1
sg25
I1
sg26
g32
sbag0
(g16
g2
Ntp1690
Rp1691
(dp1692
g20
I15
sg21
g44
sg23
F-0.995623049918074
sg24
I-1
sg25
I1
sg26
g32
sbag0
(g16
g2
Ntp1693
Rp1694
(dp1695
g20
I16
sg21
g48
sg23
(lp1696
F79.79378759609878
aF95.48674221295862
asg24
I0
sg25
I100
sg26
g50
sbag0
(g16
g2
Ntp1697
Rp1698
(dp1699
g20
I17
sg21
g54
sg23
(lp1700
F25.299346036955733
aF30.4537501690068
aF72.52181701608436
asg24
I0
sg25
I100
sg26
g56
sbag0
(g16
g2
Ntp1701
Rp1702
(dp1703
g20
I18
sg21
g60
sg23
(lp1704
F27.77356404517445
aF89.272223203209
asg24
I0
sg25
I100
sg26
g50
sbag0
(g16
g2
Ntp1705
Rp1706
(dp1707
g20
I19
sg21
g65
sg23
(lp1708
F7.542581812908014
aF31.229844855853475
asg24
I1
sg25
I100
sg26
g65
sbag0
(g16
g2
Ntp1709
Rp1710
(dp1711
g20
I20
sg21
g70
sg23
F0.40150366520751796
sg24
F0.01
sg25
F0.99
sg26
g32
sbag0
(g16
g2
Ntp1712
Rp1713
(dp1714
g20
I21
sg21
g74
sg23
I142
sg24
I1
sg25
I300
sg26
g27
sbasg75
(dp1715
g22
g1679
sg31
g1682
sg36
g1685
sg40
g1688
sg44
g1691
sg48
g1694
sg54
g1698
sg60
g1702
sg65
g1706
sg70
g1710
sg74
g1713
ssg77
Nsbag0
(g9
g2
Ntp1716
Rp1717
(dp1718
g13
I132
sg14
(lp1719
g0
(g16
g2
Ntp1720
Rp1721
(dp1722
g20
I11
sg21
g22
sg23
I212
sg24
I1
sg25
I300
sg26
g27
sbag0
(g16
g2
Ntp1723
Rp1724
(dp1725
g20
I12
sg21
g31
sg23
F0.7356226176050575
sg24
I-1
sg25
I1
sg26
g32
sbag0
(g16
g2
Ntp1726
Rp1727
(dp1728
g20
I13
sg21
g36
sg23
F-0.19499896864377808
sg24
I-1
sg25
I1
sg26
g32
sbag0
(g16
g2
Ntp1729
Rp1730
(dp1731
g20
I14
sg21
g40
sg23
F0.6553687374010722
sg24
I-1
sg25
I1
sg26
g32
sbag0
(g16
g2
Ntp1732
Rp1733
(dp1734
g20
I15
sg21
g44
sg23
F-0.995623049918074
sg24
I-1
sg25
I1
sg26
g32
sbag0
(g16
g2
Ntp1735
Rp1736
(dp1737
g20
I16
sg21
g48
sg23
(lp1738
F79.79378759609878
aF95.48674221295862
asg24
I0
sg25
I100
sg26
g50
sbag0
(g16
g2
Ntp1739
Rp1740
(dp1741
g20
I17
sg21
g54
sg23
(lp1742
F25.299346036955733
aF30.4537501690068
aF72.52181701608436
asg24
I0
sg25
I100
sg26
g56
sbag0
(g16
g2
Ntp1743
Rp1744
(dp1745
g20
I18
sg21
g60
sg23
(lp1746
F27.77356404517445
aF89.272223203209
asg24
I0
sg25
I100
sg26
g50
sbag0
(g16
g2
Ntp1747
Rp1748
(dp1749
g20
I19
sg21
g65
sg23
(lp1750
F7.542581812908014
aF31.229844855853475
asg24
I1
sg25
I100
sg26
g65
sbag0
(g16
g2
Ntp1751
Rp1752
(dp1753
g20
I20
sg21
g70
sg23
F0.40150366520751796
sg24
F0.01
sg25
F0.99
sg26
g32
sbag0
(g16
g2
Ntp1754
Rp1755
(dp1756
g20
I21
sg21
g74
sg23
I142
sg24
I1
sg25
I300
sg26
g27
sbasg75
(dp1757
g22
g1721
sg31
g1724
sg36
g1727
sg40
g1730
sg44
g1733
sg48
g1736
sg54
g1740
sg60
g1744
sg65
g1748
sg70
g1752
sg74
g1755
ssg77
Nsbag0
(g9
g2
Ntp1758
Rp1759
(dp1760
g13
I132
sg14
(lp1761
g0
(g16
g2
Ntp1762
Rp1763
(dp1764
g20
I11
sg21
g22
sg23
I212
sg24
I1
sg25
I300
sg26
g27
sbag0
(g16
g2
Ntp1765
Rp1766
(dp1767
g20
I12
sg21
g31
sg23
F0.7356226176050575
sg24
I-1
sg25
I1
sg26
g32
sbag0
(g16
g2
Ntp1768
Rp1769
(dp1770
g20
I13
sg21
g36
sg23
F-0.19499896864377808
sg24
I-1
sg25
I1
sg26
g32
sbag0
(g16
g2
Ntp1771
Rp1772
(dp1773
g20
I14
sg21
g40
sg23
F0.6553687374010722
sg24
I-1
sg25
I1
sg26
g32
sbag0
(g16
g2
Ntp1774
Rp1775
(dp1776
g20
I15
sg21
g44
sg23
F-0.995623049918074
sg24
I-1
sg25
I1
sg26
g32
sbag0
(g16
g2
Ntp1777
Rp1778
(dp1779
g20
I16
sg21
g48
sg23
(lp1780
F79.79378759609878
aF95.48674221295862
asg24
I0
sg25
I100
sg26
g50
sbag0
(g16
g2
Ntp1781
Rp1782
(dp1783
g20
I17
sg21
g54
sg23
(lp1784
F25.299346036955733
aF30.4537501690068
aF72.52181701608436
asg24
I0
sg25
I100
sg26
g56
sbag0
(g16
g2
Ntp1785
Rp1786
(dp1787
g20
I18
sg21
g60
sg23
(lp1788
F27.77356404517445
aF89.272223203209
asg24
I0
sg25
I100
sg26
g50
sbag0
(g16
g2
Ntp1789
Rp1790
(dp1791
g20
I19
sg21
g65
sg23
(lp1792
F7.542581812908014
aF31.229844855853475
asg24
I1
sg25
I100
sg26
g65
sbag0
(g16
g2
Ntp1793
Rp1794
(dp1795
g20
I20
sg21
g70
sg23
F0.40150366520751796
sg24
F0.01
sg25
F0.99
sg26
g32
sbag0
(g16
g2
Ntp1796
Rp1797
(dp1798
g20
I21
sg21
g74
sg23
I142
sg24
I1
sg25
I300
sg26
g27
sbasg75
(dp1799
g22
g1763
sg31
g1766
sg36
g1769
sg40
g1772
sg44
g1775
sg48
g1778
sg54
g1782
sg60
g1786
sg65
g1790
sg70
g1794
sg74
g1797
ssg77
Nsbag0
(g9
g2
Ntp1800
Rp1801
(dp1802
g13
I132
sg14
(lp1803
g0
(g16
g2
Ntp1804
Rp1805
(dp1806
g20
I11
sg21
g22
sg23
I212
sg24
I1
sg25
I300
sg26
g27
sbag0
(g16
g2
Ntp1807
Rp1808
(dp1809
g20
I12
sg21
g31
sg23
F0.7356226176050575
sg24
I-1
sg25
I1
sg26
g32
sbag0
(g16
g2
Ntp1810
Rp1811
(dp1812
g20
I13
sg21
g36
sg23
F-0.19499896864377808
sg24
I-1
sg25
I1
sg26
g32
sbag0
(g16
g2
Ntp1813
Rp1814
(dp1815
g20
I14
sg21
g40
sg23
F0.6553687374010722
sg24
I-1
sg25
I1
sg26
g32
sbag0
(g16
g2
Ntp1816
Rp1817
(dp1818
g20
I15
sg21
g44
sg23
F-0.995623049918074
sg24
I-1
sg25
I1
sg26
g32
sbag0
(g16
g2
Ntp1819
Rp1820
(dp1821
g20
I16
sg21
g48
sg23
(lp1822
F79.79378759609878
aF95.48674221295862
asg24
I0
sg25
I100
sg26
g50
sbag0
(g16
g2
Ntp1823
Rp1824
(dp1825
g20
I17
sg21
g54
sg23
(lp1826
F25.299346036955733
aF30.4537501690068
aF72.52181701608436
asg24
I0
sg25
I100
sg26
g56
sbag0
(g16
g2
Ntp1827
Rp1828
(dp1829
g20
I18
sg21
g60
sg23
(lp1830
F27.77356404517445
aF89.272223203209
asg24
I0
sg25
I100
sg26
g50
sbag0
(g16
g2
Ntp1831
Rp1832
(dp1833
g20
I19
sg21
g65
sg23
(lp1834
F7.542581812908014
aF31.229844855853475
asg24
I1
sg25
I100
sg26
g65
sbag0
(g16
g2
Ntp1835
Rp1836
(dp1837
g20
I20
sg21
g70
sg23
F0.40150366520751796
sg24
F0.01
sg25
F0.99
sg26
g32
sbag0
(g16
g2
Ntp1838
Rp1839
(dp1840
g20
I21
sg21
g74
sg23
I142
sg24
I1
sg25
I300
sg26
g27
sbasg75
(dp1841
g22
g1805
sg31
g1808
sg36
g1811
sg40
g1814
sg44
g1817
sg48
g1820
sg54
g1824
sg60
g1828
sg65
g1832
sg70
g1836
sg74
g1839
ssg77
Nsbag0
(g9
g2
Ntp1842
Rp1843
(dp1844
g13
I132
sg14
(lp1845
g0
(g16
g2
Ntp1846
Rp1847
(dp1848
g20
I11
sg21
g22
sg23
I212
sg24
I1
sg25
I300
sg26
g27
sbag0
(g16
g2
Ntp1849
Rp1850
(dp1851
g20
I12
sg21
g31
sg23
F0.7356226176050575
sg24
I-1
sg25
I1
sg26
g32
sbag0
(g16
g2
Ntp1852
Rp1853
(dp1854
g20
I13
sg21
g36
sg23
F-0.19499896864377808
sg24
I-1
sg25
I1
sg26
g32
sbag0
(g16
g2
Ntp1855
Rp1856
(dp1857
g20
I14
sg21
g40
sg23
F0.6553687374010722
sg24
I-1
sg25
I1
sg26
g32
sbag0
(g16
g2
Ntp1858
Rp1859
(dp1860
g20
I15
sg21
g44
sg23
F-0.995623049918074
sg24
I-1
sg25
I1
sg26
g32
sbag0
(g16
g2
Ntp1861
Rp1862
(dp1863
g20
I16
sg21
g48
sg23
(lp1864
F79.79378759609878
aF95.48674221295862
asg24
I0
sg25
I100
sg26
g50
sbag0
(g16
g2
Ntp1865
Rp1866
(dp1867
g20
I17
sg21
g54
sg23
(lp1868
F25.299346036955733
aF30.4537501690068
aF72.52181701608436
asg24
I0
sg25
I100
sg26
g56
sbag0
(g16
g2
Ntp1869
Rp1870
(dp1871
g20
I18
sg21
g60
sg23
(lp1872
F27.77356404517445
aF89.272223203209
asg24
I0
sg25
I100
sg26
g50
sbag0
(g16
g2
Ntp1873
Rp1874
(dp1875
g20
I19
sg21
g65
sg23
(lp1876
F7.542581812908014
aF31.229844855853475
asg24
I1
sg25
I100
sg26
g65
sbag0
(g16
g2
Ntp1877
Rp1878
(dp1879
g20
I20
sg21
g70
sg23
F0.40150366520751796
sg24
F0.01
sg25
F0.99
sg26
g32
sbag0
(g16
g2
Ntp1880
Rp1881
(dp1882
g20
I21
sg21
g74
sg23
I142
sg24
I1
sg25
I300
sg26
g27
sbasg75
(dp1883
g22
g1847
sg31
g1850
sg36
g1853
sg40
g1856
sg44
g1859
sg48
g1862
sg54
g1866
sg60
g1870
sg65
g1874
sg70
g1878
sg74
g1881
ssg77
Nsbag0
(g9
g2
Ntp1884
Rp1885
(dp1886
g13
I132
sg14
(lp1887
g0
(g16
g2
Ntp1888
Rp1889
(dp1890
g20
I11
sg21
g22
sg23
I212
sg24
I1
sg25
I300
sg26
g27
sbag0
(g16
g2
Ntp1891
Rp1892
(dp1893
g20
I12
sg21
g31
sg23
F0.7356226176050575
sg24
I-1
sg25
I1
sg26
g32
sbag0
(g16
g2
Ntp1894
Rp1895
(dp1896
g20
I13
sg21
g36
sg23
F-0.19499896864377808
sg24
I-1
sg25
I1
sg26
g32
sbag0
(g16
g2
Ntp1897
Rp1898
(dp1899
g20
I14
sg21
g40
sg23
F0.6553687374010722
sg24
I-1
sg25
I1
sg26
g32
sbag0
(g16
g2
Ntp1900
Rp1901
(dp1902
g20
I15
sg21
g44
sg23
F-0.995623049918074
sg24
I-1
sg25
I1
sg26
g32
sbag0
(g16
g2
Ntp1903
Rp1904
(dp1905
g20
I16
sg21
g48
sg23
(lp1906
F79.79378759609878
aF95.48674221295862
asg24
I0
sg25
I100
sg26
g50
sbag0
(g16
g2
Ntp1907
Rp1908
(dp1909
g20
I17
sg21
g54
sg23
(lp1910
F25.299346036955733
aF30.4537501690068
aF72.52181701608436
asg24
I0
sg25
I100
sg26
g56
sbag0
(g16
g2
Ntp1911
Rp1912
(dp1913
g20
I18
sg21
g60
sg23
(lp1914
F27.77356404517445
aF89.272223203209
asg24
I0
sg25
I100
sg26
g50
sbag0
(g16
g2
Ntp1915
Rp1916
(dp1917
g20
I19
sg21
g65
sg23
(lp1918
F7.542581812908014
aF31.229844855853475
asg24
I1
sg25
I100
sg26
g65
sbag0
(g16
g2
Ntp1919
Rp1920
(dp1921
g20
I20
sg21
g70
sg23
F0.40150366520751796
sg24
F0.01
sg25
F0.99
sg26
g32
sbag0
(g16
g2
Ntp1922
Rp1923
(dp1924
g20
I21
sg21
g74
sg23
I142
sg24
I1
sg25
I300
sg26
g27
sbasg75
(dp1925
g22
g1889
sg31
g1892
sg36
g1895
sg40
g1898
sg44
g1901
sg48
g1904
sg54
g1908
sg60
g1912
sg65
g1916
sg70
g1920
sg74
g1923
ssg77
Nsbag0
(g9
g2
Ntp1926
Rp1927
(dp1928
g13
I132
sg14
(lp1929
g0
(g16
g2
Ntp1930
Rp1931
(dp1932
g20
I11
sg21
g22
sg23
I212
sg24
I1
sg25
I300
sg26
g27
sbag0
(g16
g2
Ntp1933
Rp1934
(dp1935
g20
I12
sg21
g31
sg23
F0.7356226176050575
sg24
I-1
sg25
I1
sg26
g32
sbag0
(g16
g2
Ntp1936
Rp1937
(dp1938
g20
I13
sg21
g36
sg23
F-0.19499896864377808
sg24
I-1
sg25
I1
sg26
g32
sbag0
(g16
g2
Ntp1939
Rp1940
(dp1941
g20
I14
sg21
g40
sg23
F0.6553687374010722
sg24
I-1
sg25
I1
sg26
g32
sbag0
(g16
g2
Ntp1942
Rp1943
(dp1944
g20
I15
sg21
g44
sg23
F-0.995623049918074
sg24
I-1
sg25
I1
sg26
g32
sbag0
(g16
g2
Ntp1945
Rp1946
(dp1947
g20
I16
sg21
g48
sg23
(lp1948
F79.79378759609878
aF95.48674221295862
asg24
I0
sg25
I100
sg26
g50
sbag0
(g16
g2
Ntp1949
Rp1950
(dp1951
g20
I17
sg21
g54
sg23
(lp1952
F25.299346036955733
aF30.4537501690068
aF72.52181701608436
asg24
I0
sg25
I100
sg26
g56
sbag0
(g16
g2
Ntp1953
Rp1954
(dp1955
g20
I18
sg21
g60
sg23
(lp1956
F27.77356404517445
aF89.272223203209
asg24
I0
sg25
I100
sg26
g50
sbag0
(g16
g2
Ntp1957
Rp1958
(dp1959
g20
I19
sg21
g65
sg23
(lp1960
F7.542581812908014
aF31.229844855853475
asg24
I1
sg25
I100
sg26
g65
sbag0
(g16
g2
Ntp1961
Rp1962
(dp1963
g20
I20
sg21
g70
sg23
F0.40150366520751796
sg24
F0.01
sg25
F0.99
sg26
g32
sbag0
(g16
g2
Ntp1964
Rp1965
(dp1966
g20
I21
sg21
g74
sg23
I142
sg24
I1
sg25
I300
sg26
g27
sbasg75
(dp1967
g22
g1931
sg31
g1934
sg36
g1937
sg40
g1940
sg44
g1943
sg48
g1946
sg54
g1950
sg60
g1954
sg65
g1958
sg70
g1962
sg74
g1965
ssg77
Nsbag0
(g9
g2
Ntp1968
Rp1969
(dp1970
g13
I132
sg14
(lp1971
g0
(g16
g2
Ntp1972
Rp1973
(dp1974
g20
I11
sg21
g22
sg23
I212
sg24
I1
sg25
I300
sg26
g27
sbag0
(g16
g2
Ntp1975
Rp1976
(dp1977
g20
I12
sg21
g31
sg23
F0.7356226176050575
sg24
I-1
sg25
I1
sg26
g32
sbag0
(g16
g2
Ntp1978
Rp1979
(dp1980
g20
I13
sg21
g36
sg23
F-0.19499896864377808
sg24
I-1
sg25
I1
sg26
g32
sbag0
(g16
g2
Ntp1981
Rp1982
(dp1983
g20
I14
sg21
g40
sg23
F0.6553687374010722
sg24
I-1
sg25
I1
sg26
g32
sbag0
(g16
g2
Ntp1984
Rp1985
(dp1986
g20
I15
sg21
g44
sg23
F-0.995623049918074
sg24
I-1
sg25
I1
sg26
g32
sbag0
(g16
g2
Ntp1987
Rp1988
(dp1989
g20
I16
sg21
g48
sg23
(lp1990
F79.79378759609878
aF95.48674221295862
asg24
I0
sg25
I100
sg26
g50
sbag0
(g16
g2
Ntp1991
Rp1992
(dp1993
g20
I17
sg21
g54
sg23
(lp1994
F25.299346036955733
aF30.4537501690068
aF72.52181701608436
asg24
I0
sg25
I100
sg26
g56
sbag0
(g16
g2
Ntp1995
Rp1996
(dp1997
g20
I18
sg21
g60
sg23
(lp1998
F27.77356404517445
aF89.272223203209
asg24
I0
sg25
I100
sg26
g50
sbag0
(g16
g2
Ntp1999
Rp2000
(dp2001
g20
I19
sg21
g65
sg23
(lp2002
F7.542581812908014
aF31.229844855853475
asg24
I1
sg25
I100
sg26
g65
sbag0
(g16
g2
Ntp2003
Rp2004
(dp2005
g20
I20
sg21
g70
sg23
F0.40150366520751796
sg24
F0.01
sg25
F0.99
sg26
g32
sbag0
(g16
g2
Ntp2006
Rp2007
(dp2008
g20
I21
sg21
g74
sg23
I142
sg24
I1
sg25
I300
sg26
g27
sbasg75
(dp2009
g22
g1973
sg31
g1976
sg36
g1979
sg40
g1982
sg44
g1985
sg48
g1988
sg54
g1992
sg60
g1996
sg65
g2000
sg70
g2004
sg74
g2007
ssg77
Nsbag0
(g9
g2
Ntp2010
Rp2011
(dp2012
g13
I132
sg14
(lp2013
g0
(g16
g2
Ntp2014
Rp2015
(dp2016
g20
I11
sg21
g22
sg23
I212
sg24
I1
sg25
I300
sg26
g27
sbag0
(g16
g2
Ntp2017
Rp2018
(dp2019
g20
I12
sg21
g31
sg23
F0.7356226176050575
sg24
I-1
sg25
I1
sg26
g32
sbag0
(g16
g2
Ntp2020
Rp2021
(dp2022
g20
I13
sg21
g36
sg23
F-0.19499896864377808
sg24
I-1
sg25
I1
sg26
g32
sbag0
(g16
g2
Ntp2023
Rp2024
(dp2025
g20
I14
sg21
g40
sg23
F0.6553687374010722
sg24
I-1
sg25
I1
sg26
g32
sbag0
(g16
g2
Ntp2026
Rp2027
(dp2028
g20
I15
sg21
g44
sg23
F-0.995623049918074
sg24
I-1
sg25
I1
sg26
g32
sbag0
(g16
g2
Ntp2029
Rp2030
(dp2031
g20
I16
sg21
g48
sg23
(lp2032
F79.79378759609878
aF95.48674221295862
asg24
I0
sg25
I100
sg26
g50
sbag0
(g16
g2
Ntp2033
Rp2034
(dp2035
g20
I17
sg21
g54
sg23
(lp2036
F25.299346036955733
aF30.4537501690068
aF72.52181701608436
asg24
I0
sg25
I100
sg26
g56
sbag0
(g16
g2
Ntp2037
Rp2038
(dp2039
g20
I18
sg21
g60
sg23
(lp2040
F27.77356404517445
aF89.272223203209
asg24
I0
sg25
I100
sg26
g50
sbag0
(g16
g2
Ntp2041
Rp2042
(dp2043
g20
I19
sg21
g65
sg23
(lp2044
F7.542581812908014
aF31.229844855853475
asg24
I1
sg25
I100
sg26
g65
sbag0
(g16
g2
Ntp2045
Rp2046
(dp2047
g20
I20
sg21
g70
sg23
F0.40150366520751796
sg24
F0.01
sg25
F0.99
sg26
g32
sbag0
(g16
g2
Ntp2048
Rp2049
(dp2050
g20
I21
sg21
g74
sg23
I142
sg24
I1
sg25
I300
sg26
g27
sbasg75
(dp2051
g22
g2015
sg31
g2018
sg36
g2021
sg40
g2024
sg44
g2027
sg48
g2030
sg54
g2034
sg60
g2038
sg65
g2042
sg70
g2046
sg74
g2049
ssg77
Nsbag0
(g9
g2
Ntp2052
Rp2053
(dp2054
g13
I134
sg14
(lp2055
g0
(g16
g2
Ntp2056
Rp2057
(dp2058
g20
I11
sg21
g22
sg23
I44
sg24
I1
sg25
I300
sg26
g27
sbag0
(g16
g2
Ntp2059
Rp2060
(dp2061
g20
I12
sg21
g31
sg23
F0.6745988227852144
sg24
I-1
sg25
I1
sg26
g32
sbag0
(g16
g2
Ntp2062
Rp2063
(dp2064
g20
I13
sg21
g36
sg23
F0.9006401720016903
sg24
I-1
sg25
I1
sg26
g32
sbag0
(g16
g2
Ntp2065
Rp2066
(dp2067
g20
I14
sg21
g40
sg23
F0.5057135944086935
sg24
I-1
sg25
I1
sg26
g32
sbag0
(g16
g2
Ntp2068
Rp2069
(dp2070
g20
I15
sg21
g44
sg23
F-0.18722914669147328
sg24
I-1
sg25
I1
sg26
g32
sbag0
(g16
g2
Ntp2071
Rp2072
(dp2073
g20
I16
sg21
g48
sg23
(lp2074
F80.93046584549319
aF98.29518871830038
asg24
I0
sg25
I100
sg26
g50
sbag0
(g16
g2
Ntp2075
Rp2076
(dp2077
g20
I17
sg21
g54
sg23
(lp2078
F3.369513693374915
aF19.649673772030496
aF39.02666110855424
asg24
I0
sg25
I100
sg26
g56
sbag0
(g16
g2
Ntp2079
Rp2080
(dp2081
g20
I18
sg21
g60
sg23
(lp2082
F81.09359523152342
aF94.2991371803521
asg24
I0
sg25
I100
sg26
g50
sbag0
(g16
g2
Ntp2083
Rp2084
(dp2085
g20
I19
sg21
g65
sg23
(lp2086
F2.4960652292415815
aF36.62007606184147
asg24
I1
sg25
I100
sg26
g65
sbag0
(g16
g2
Ntp2087
Rp2088
(dp2089
g20
I20
sg21
g70
sg23
F0.1974936150104296
sg24
F0.01
sg25
F0.99
sg26
g32
sbag0
(g16
g2
Ntp2090
Rp2091
(dp2092
g20
I21
sg21
g74
sg23
I44
sg24
I1
sg25
I300
sg26
g27
sbasg75
(dp2093
g22
g2057
sg31
g2060
sg36
g2063
sg40
g2066
sg44
g2069
sg48
g2072
sg54
g2076
sg60
g2080
sg65
g2084
sg70
g2088
sg74
g2091
ssg77
Nsbag0
(g9
g2
Ntp2094
Rp2095
(dp2096
g13
I134
sg14
(lp2097
g0
(g16
g2
Ntp2098
Rp2099
(dp2100
g20
I11
sg21
g22
sg23
I44
sg24
I1
sg25
I300
sg26
g27
sbag0
(g16
g2
Ntp2101
Rp2102
(dp2103
g20
I12
sg21
g31
sg23
F0.6745988227852144
sg24
I-1
sg25
I1
sg26
g32
sbag0
(g16
g2
Ntp2104
Rp2105
(dp2106
g20
I13
sg21
g36
sg23
F0.9006401720016903
sg24
I-1
sg25
I1
sg26
g32
sbag0
(g16
g2
Ntp2107
Rp2108
(dp2109
g20
I14
sg21
g40
sg23
F0.5057135944086935
sg24
I-1
sg25
I1
sg26
g32
sbag0
(g16
g2
Ntp2110
Rp2111
(dp2112
g20
I15
sg21
g44
sg23
F-0.18722914669147328
sg24
I-1
sg25
I1
sg26
g32
sbag0
(g16
g2
Ntp2113
Rp2114
(dp2115
g20
I16
sg21
g48
sg23
(lp2116
F80.93046584549319
aF98.29518871830038
asg24
I0
sg25
I100
sg26
g50
sbag0
(g16
g2
Ntp2117
Rp2118
(dp2119
g20
I17
sg21
g54
sg23
(lp2120
F3.369513693374915
aF19.649673772030496
aF39.02666110855424
asg24
I0
sg25
I100
sg26
g56
sbag0
(g16
g2
Ntp2121
Rp2122
(dp2123
g20
I18
sg21
g60
sg23
(lp2124
F81.09359523152342
aF94.2991371803521
asg24
I0
sg25
I100
sg26
g50
sbag0
(g16
g2
Ntp2125
Rp2126
(dp2127
g20
I19
sg21
g65
sg23
(lp2128
F2.4960652292415815
aF36.62007606184147
asg24
I1
sg25
I100
sg26
g65
sbag0
(g16
g2
Ntp2129
Rp2130
(dp2131
g20
I20
sg21
g70
sg23
F0.1974936150104296
sg24
F0.01
sg25
F0.99
sg26
g32
sbag0
(g16
g2
Ntp2132
Rp2133
(dp2134
g20
I21
sg21
g74
sg23
I44
sg24
I1
sg25
I300
sg26
g27
sbasg75
(dp2135
g22
g2099
sg31
g2102
sg36
g2105
sg40
g2108
sg44
g2111
sg48
g2114
sg54
g2118
sg60
g2122
sg65
g2126
sg70
g2130
sg74
g2133
ssg77
Nsbag0
(g9
g2
Ntp2136
Rp2137
(dp2138
g13
I177
sg14
(lp2139
g0
(g16
g2
Ntp2140
Rp2141
(dp2142
g20
I11
sg21
g22
sg23
I212
sg24
I1
sg25
I300
sg26
g27
sbag0
(g16
g2
Ntp2143
Rp2144
(dp2145
g20
I12
sg21
g31
sg23
F0.7356226176050575
sg24
I-1
sg25
I1
sg26
g32
sbag0
(g16
g2
Ntp2146
Rp2147
(dp2148
g20
I13
sg21
g36
sg23
F0.49170490241066556
sg24
I-1
sg25
I1
sg26
g32
sbag0
(g16
g2
Ntp2149
Rp2150
(dp2151
g20
I14
sg21
g40
sg23
F0.6553687374010722
sg24
I-1
sg25
I1
sg26
g32
sbag0
(g16
g2
Ntp2152
Rp2153
(dp2154
g20
I15
sg21
g44
sg23
F-0.995623049918074
sg24
I-1
sg25
I1
sg26
g32
sbag0
(g16
g2
Ntp2155
Rp2156
(dp2157
g20
I16
sg21
g48
sg23
(lp2158
F79.79378759609878
aF95.48674221295862
asg24
I0
sg25
I100
sg26
g50
sbag0
(g16
g2
Ntp2159
Rp2160
(dp2161
g20
I17
sg21
g54
sg23
(lp2162
F25.299346036955733
aF30.4537501690068
aF72.52181701608436
asg24
I0
sg25
I100
sg26
g56
sbag0
(g16
g2
Ntp2163
Rp2164
(dp2165
g20
I18
sg21
g60
sg23
(lp2166
F27.77356404517445
aF89.272223203209
asg24
I0
sg25
I100
sg26
g50
sbag0
(g16
g2
Ntp2167
Rp2168
(dp2169
g20
I19
sg21
g65
sg23
(lp2170
F7.542581812908014
aF31.229844855853475
asg24
I1
sg25
I100
sg26
g65
sbag0
(g16
g2
Ntp2171
Rp2172
(dp2173
g20
I20
sg21
g70
sg23
F0.40150366520751796
sg24
F0.01
sg25
F0.99
sg26
g32
sbag0
(g16
g2
Ntp2174
Rp2175
(dp2176
g20
I10
sg21
g74
sg23
I14
sg24
I1
sg25
I300
sg26
g27
sbasg75
(dp2177
g22
g2141
sg31
g2144
sg36
g2147
sg40
g2150
sg44
g2153
sg48
g2156
sg54
g2160
sg60
g2164
sg65
g2168
sg70
g2172
sg74
g2175
ssg77
Nsbag0
(g9
g2
Ntp2178
Rp2179
(dp2180
g13
I178
sg14
(lp2181
g0
(g16
g2
Ntp2182
Rp2183
(dp2184
g20
I0
sg21
g22
sg23
I30
sg24
I1
sg25
I300
sg26
g27
sbag0
(g16
g2
Ntp2185
Rp2186
(dp2187
g20
I1
sg21
g31
sg23
I1
sg24
I-1
sg25
I1
sg26
g32
sbag0
(g16
g2
Ntp2188
Rp2189
(dp2190
g20
I2
sg21
g36
sg23
I1
sg24
I-1
sg25
I1
sg26
g32
sbag0
(g16
g2
Ntp2191
Rp2192
(dp2193
g20
I3
sg21
g40
sg23
I1
sg24
I-1
sg25
I1
sg26
g32
sbag0
(g16
g2
Ntp2194
Rp2195
(dp2196
g20
I4
sg21
g44
sg23
I1
sg24
I-1
sg25
I1
sg26
g32
sbag0
(g16
g2
Ntp2197
Rp2198
(dp2199
g20
I5
sg21
g48
sg23
(lp2200
I0
aI25
asg24
I0
sg25
I100
sg26
g50
sbag0
(g16
g2
Ntp2201
Rp2202
(dp2203
g20
I6
sg21
g54
sg23
(lp2204
I25
aI50
aI75
asg24
I0
sg25
I100
sg26
g56
sbag0
(g16
g2
Ntp2205
Rp2206
(dp2207
g20
I7
sg21
g60
sg23
(lp2208
F75.63832734275928
aF99.73864457859648
asg24
I0
sg25
I100
sg26
g50
sbag0
(g16
g2
Ntp2209
Rp2210
(dp2211
g20
I8
sg21
g65
sg23
(lp2212
I50
aI50
asg24
I1
sg25
I100
sg26
g65
sbag0
(g16
g2
Ntp2213
Rp2214
(dp2215
g20
I9
sg21
g70
sg23
F0.95
sg24
F0.01
sg25
F0.99
sg26
g32
sbag0
(g16
g2
Ntp2216
Rp2217
(dp2218
g20
I21
sg21
g74
sg23
I142
sg24
I1
sg25
I300
sg26
g27
sbasg75
(dp2219
g22
g2183
sg31
g2186
sg36
g2189
sg40
g2192
sg44
g2195
sg48
g2198
sg54
g2202
sg60
g2206
sg65
g2210
sg70
g2214
sg74
g2217
ssg77
Nsbag0
(g9
g2
Ntp2220
Rp2221
(dp2222
g13
I179
sg14
(lp2223
g0
(g16
g2
Ntp2224
Rp2225
(dp2226
g20
I22
sg21
g22
sg23
I4
sg24
I1
sg25
I300
sg26
g27
sbag0
(g16
g2
Ntp2227
Rp2228
(dp2229
g20
I23
sg21
g31
sg23
F-0.8932218437616406
sg24
I-1
sg25
I1
sg26
g32
sbag0
(g16
g2
Ntp2230
Rp2231
(dp2232
g20
I24
sg21
g36
sg23
F1.0
sg24
I-1
sg25
I1
sg26
g32
sbag0
(g16
g2
Ntp2233
Rp2234
(dp2235
g20
I25
sg21
g40
sg23
F1.0
sg24
I-1
sg25
I1
sg26
g32
sbag0
(g16
g2
Ntp2236
Rp2237
(dp2238
g20
I26
sg21
g44
sg23
F1.0
sg24
I-1
sg25
I1
sg26
g32
sbag0
(g16
g2
Ntp2239
Rp2240
(dp2241
g20
I27
sg21
g48
sg23
(lp2242
F0.0
aF25.0
asg24
I0
sg25
I100
sg26
g50
sbag0
(g16
g2
Ntp2243
Rp2244
(dp2245
g20
I28
sg21
g54
sg23
(lp2246
F45.85278876302064
aF82.16641280586708
aF95.10961564003641
asg24
I0
sg25
I100
sg26
g56
sbag0
(g16
g2
Ntp2247
Rp2248
(dp2249
g20
I29
sg21
g60
sg23
(lp2250
F75.0
aF100.0
asg24
I0
sg25
I100
sg26
g50
sbag0
(g16
g2
Ntp2251
Rp2252
(dp2253
g20
I30
sg21
g65
sg23
(lp2254
I50
aI50
asg24
I1
sg25
I100
sg26
g65
sbag0
(g16
g2
Ntp2255
Rp2256
(dp2257
g20
I31
sg21
g70
sg23
F0.9500000000000001
sg24
F0.01
sg25
F0.99
sg26
g32
sbag0
(g16
g2
Ntp2258
Rp2259
(dp2260
g20
I32
sg21
g74
sg23
I30
sg24
I1
sg25
I300
sg26
g27
sbasg75
(dp2261
g22
g2225
sg31
g2228
sg36
g2231
sg40
g2234
sg44
g2237
sg48
g2240
sg54
g2244
sg60
g2248
sg65
g2252
sg70
g2256
sg74
g2259
ssg77
Nsbag0
(g9
g2
Ntp2262
Rp2263
(dp2264
g13
I180
sg14
g2223
sg75
(dp2265
g22
g2225
sg31
g2228
sg36
g2231
sg40
g2234
sg44
g2237
sg48
g2240
sg54
g2244
sg60
g2248
sg65
g2252
sg70
g2256
sg74
g2259
ssg77
Nsbag0
(g9
g2
Ntp2266
Rp2267
(dp2268
g13
I181
sg14
(lp2269
g0
(g16
g2
Ntp2270
Rp2271
(dp2272
g20
I33
sg21
g22
sg23
I48
sg24
I1
sg25
I300
sg26
g27
sbag0
(g16
g2
Ntp2273
Rp2274
(dp2275
g20
I35
sg21
g31
sg23
F0.9874349869413968
sg24
I-1
sg25
I1
sg26
g32
sbag0
(g16
g2
Ntp2276
Rp2277
(dp2278
g20
I37
sg21
g36
sg23
F0.9926424757260008
sg24
I-1
sg25
I1
sg26
g32
sbag0
(g16
g2
Ntp2279
Rp2280
(dp2281
g20
I39
sg21
g40
sg23
F0.9431995954474146
sg24
I-1
sg25
I1
sg26
g32
sbag0
(g16
g2
Ntp2282
Rp2283
(dp2284
g20
I41
sg21
g44
sg23
F0.6753816819898019
sg24
I-1
sg25
I1
sg26
g32
sbag0
(g16
g2
Ntp2285
Rp2286
(dp2287
g20
I43
sg21
g48
sg23
(lp2288
F2.0897145542941282
aF26.845972920007114
asg24
I0
sg25
I100
sg26
g50
sbag0
(g16
g2
Ntp2289
Rp2290
(dp2291
g20
I45
sg21
g54
sg23
(lp2292
F24.95314070262912
aF53.0597483188041
aF75.38793202196267
asg24
I0
sg25
I100
sg26
g56
sbag0
(g16
g2
Ntp2293
Rp2294
(dp2295
g20
I47
sg21
g60
sg23
(lp2296
F74.56440652860127
aF99.90105225090932
asg24
I0
sg25
I100
sg26
g50
sbag0
(g16
g2
Ntp2297
Rp2298
(dp2299
g20
I49
sg21
g65
sg23
(lp2300
F47.018731081055044
aF48.68199993017871
asg24
I1
sg25
I100
sg26
g65
sbag0
(g16
g2
Ntp2301
Rp2302
(dp2303
g20
I51
sg21
g70
sg23
F0.9304820037053343
sg24
F0.01
sg25
F0.99
sg26
g32
sbag0
(g16
g2
Ntp2304
Rp2305
(dp2306
g20
I53
sg21
g74
sg23
I7
sg24
I1
sg25
I300
sg26
g27
sbasg75
(dp2307
g22
g2271
sg31
g2274
sg36
g2277
sg40
g2280
sg44
g2283
sg48
g2286
sg54
g2290
sg60
g2294
sg65
g2298
sg70
g2302
sg74
g2305
ssg77
Nsbag0
(g9
g2
Ntp2308
Rp2309
(dp2310
g13
I182
sg14
(lp2311
g0
(g16
g2
Ntp2312
Rp2313
(dp2314
g20
I34
sg21
g22
sg23
I193
sg24
I1
sg25
I300
sg26
g27
sbag0
(g16
g2
Ntp2315
Rp2316
(dp2317
g20
I36
sg21
g31
sg23
F0.7481876306636606
sg24
I-1
sg25
I1
sg26
g32
sbag0
(g16
g2
Ntp2318
Rp2319
(dp2320
g20
I38
sg21
g36
sg23
F-0.18764144436977895
sg24
I-1
sg25
I1
sg26
g32
sbag0
(g16
g2
Ntp2321
Rp2322
(dp2323
g20
I40
sg21
g40
sg23
F0.7121691419536573
sg24
I-1
sg25
I1
sg26
g32
sbag0
(g16
g2
Ntp2324
Rp2325
(dp2326
g20
I42
sg21
g44
sg23
F-0.671004731907876
sg24
I-1
sg25
I1
sg26
g32
sbag0
(g16
g2
Ntp2327
Rp2328
(dp2329
g20
I44
sg21
g48
sg23
(lp2330
F77.70407304180465
aF93.6407692929515
asg24
I0
sg25
I100
sg26
g50
sbag0
(g16
g2
Ntp2331
Rp2332
(dp2333
g20
I46
sg21
g54
sg23
(lp2334
F25.346205334326605
aF27.39400185020269
aF72.13388499412166
asg24
I0
sg25
I100
sg26
g56
sbag0
(g16
g2
Ntp2335
Rp2336
(dp2337
g20
I48
sg21
g60
sg23
(lp2338
F28.209157516573185
aF89.37117095229968
asg24
I0
sg25
I100
sg26
g50
sbag0
(g16
g2
Ntp2339
Rp2340
(dp2341
g20
I50
sg21
g65
sg23
(lp2342
F10.52385073185297
aF32.54784492567476
asg24
I1
sg25
I100
sg26
g65
sbag0
(g16
g2
Ntp2343
Rp2344
(dp2345
g20
I52
sg21
g70
sg23
F0.3657672829844752
sg24
F0.01
sg25
F0.99
sg26
g32
sbag0
(g16
g2
Ntp2346
Rp2347
(dp2348
g20
I54
sg21
g74
sg23
I164
sg24
I1
sg25
I300
sg26
g27
sbasg75
(dp2349
g22
g2313
sg31
g2316
sg36
g2319
sg40
g2322
sg44
g2325
sg48
g2328
sg54
g2332
sg60
g2336
sg65
g2340
sg70
g2344
sg74
g2347
ssg77
Nsbag0
(g9
g2
Ntp2350
Rp2351
(dp2352
g13
I183
sg14
(lp2353
g0
(g16
g2
Ntp2354
Rp2355
(dp2356
g20
I0
sg21
g22
sg23
I30
sg24
I1
sg25
I300
sg26
g27
sbag0
(g16
g2
Ntp2357
Rp2358
(dp2359
g20
I1
sg21
g31
sg23
I1
sg24
I-1
sg25
I1
sg26
g32
sbag0
(g16
g2
Ntp2360
Rp2361
(dp2362
g20
I13
sg21
g36
sg23
F-0.19499896864377808
sg24
I-1
sg25
I1
sg26
g32
sbag0
(g16
g2
Ntp2363
Rp2364
(dp2365
g20
I14
sg21
g40
sg23
F0.6553687374010722
sg24
I-1
sg25
I1
sg26
g32
sbag0
(g16
g2
Ntp2366
Rp2367
(dp2368
g20
I15
sg21
g44
sg23
F-0.995623049918074
sg24
I-1
sg25
I1
sg26
g32
sbag0
(g16
g2
Ntp2369
Rp2370
(dp2371
g20
I16
sg21
g48
sg23
(lp2372
F79.79378759609878
aF95.48674221295862
asg24
I0
sg25
I100
sg26
g50
sbag0
(g16
g2
Ntp2373
Rp2374
(dp2375
g20
I17
sg21
g54
sg23
(lp2376
F27.161323573817143
aF84.07962834422386
aF86.01253041199568
asg24
I0
sg25
I100
sg26
g56
sbag0
(g16
g2
Ntp2377
Rp2378
(dp2379
g20
I18
sg21
g60
sg23
(lp2380
F27.77356404517445
aF89.272223203209
asg24
I0
sg25
I100
sg26
g50
sbag0
(g16
g2
Ntp2381
Rp2382
(dp2383
g20
I19
sg21
g65
sg23
(lp2384
F7.542581812908014
aF31.229844855853475
asg24
I1
sg25
I100
sg26
g65
sbag0
(g16
g2
Ntp2385
Rp2386
(dp2387
g20
I20
sg21
g70
sg23
F0.9447340153875718
sg24
F0.01
sg25
F0.99
sg26
g32
sbag0
(g16
g2
Ntp2388
Rp2389
(dp2390
g20
I21
sg21
g74
sg23
I142
sg24
I1
sg25
I300
sg26
g27
sbasg75
(dp2391
g22
g2355
sg31
g2358
sg36
g2361
sg40
g2364
sg44
g2367
sg48
g2370
sg54
g2374
sg60
g2378
sg65
g2382
sg70
g2386
sg74
g2389
ssg77
Nsbag0
(g9
g2
Ntp2392
Rp2393
(dp2394
g13
I184
sg14
(lp2395
g0
(g16
g2
Ntp2396
Rp2397
(dp2398
g20
I11
sg21
g22
sg23
I212
sg24
I1
sg25
I300
sg26
g27
sbag0
(g16
g2
Ntp2399
Rp2400
(dp2401
g20
I12
sg21
g31
sg23
F0.7356226176050575
sg24
I-1
sg25
I1
sg26
g32
sbag0
(g16
g2
Ntp2402
Rp2403
(dp2404
g20
I2
sg21
g36
sg23
I1
sg24
I-1
sg25
I1
sg26
g32
sbag0
(g16
g2
Ntp2405
Rp2406
(dp2407
g20
I3
sg21
g40
sg23
I1
sg24
I-1
sg25
I1
sg26
g32
sbag0
(g16
g2
Ntp2408
Rp2409
(dp2410
g20
I4
sg21
g44
sg23
I1
sg24
I-1
sg25
I1
sg26
g32
sbag0
(g16
g2
Ntp2411
Rp2412
(dp2413
g20
I5
sg21
g48
sg23
(lp2414
I0
aI25
asg24
I0
sg25
I100
sg26
g50
sbag0
(g16
g2
Ntp2415
Rp2416
(dp2417
g20
I6
sg21
g54
sg23
(lp2418
I25
aI50
aI75
asg24
I0
sg25
I100
sg26
g56
sbag0
(g16
g2
Ntp2419
Rp2420
(dp2421
g20
I7
sg21
g60
sg23
(lp2422
I75
aI100
asg24
I0
sg25
I100
sg26
g50
sbag0
(g16
g2
Ntp2423
Rp2424
(dp2425
g20
I8
sg21
g65
sg23
(lp2426
I50
aI50
asg24
I1
sg25
I100
sg26
g65
sbag0
(g16
g2
Ntp2427
Rp2428
(dp2429
g20
I9
sg21
g70
sg23
F0.95
sg24
F0.01
sg25
F0.99
sg26
g32
sbag0
(g16
g2
Ntp2430
Rp2431
(dp2432
g20
I10
sg21
g74
sg23
I30
sg24
I1
sg25
I300
sg26
g27
sbasg75
(dp2433
g22
g2397
sg31
g2400
sg36
g2403
sg40
g2406
sg44
g2409
sg48
g2412
sg54
g2416
sg60
g2420
sg65
g2424
sg70
g2428
sg74
g2431
ssg77
Nsbag0
(g9
g2
Ntp2434
Rp2435
(dp2436
g13
I185
sg14
(lp2437
g0
(g16
g2
Ntp2438
Rp2439
(dp2440
g20
I55
sg21
g22
sg23
I30
sg24
I1
sg25
I300
sg26
g27
sbag0
(g16
g2
Ntp2441
Rp2442
(dp2443
g20
I57
sg21
g31
sg23
F0.6227364252691371
sg24
I-1
sg25
I1
sg26
g32
sbag0
(g16
g2
Ntp2444
Rp2445
(dp2446
g20
I59
sg21
g36
sg23
F-0.5446332670217228
sg24
I-1
sg25
I1
sg26
g32
sbag0
(g16
g2
Ntp2447
Rp2448
(dp2449
g20
I61
sg21
g40
sg23
F0.9999999999999999
sg24
I-1
sg25
I1
sg26
g32
sbag0
(g16
g2
Ntp2450
Rp2451
(dp2452
g20
I63
sg21
g44
sg23
F0.7788588943798674
sg24
I-1
sg25
I1
sg26
g32
sbag0
(g16
g2
Ntp2453
Rp2454
(dp2455
g20
I65
sg21
g48
sg23
(lp2456
I0
aI25
asg24
I0
sg25
I100
sg26
g50
sbag0
(g16
g2
Ntp2457
Rp2458
(dp2459
g20
I67
sg21
g54
sg23
(lp2460
F25.0
aF50.0
aF75.0
asg24
I0
sg25
I100
sg26
g56
sbag0
(g16
g2
Ntp2461
Rp2462
(dp2463
g20
I69
sg21
g60
sg23
(lp2464
F74.99999999999999
aF99.99999999999999
asg24
I0
sg25
I100
sg26
g50
sbag0
(g16
g2
Ntp2465
Rp2466
(dp2467
g20
I71
sg21
g65
sg23
(lp2468
I50
aI50
asg24
I1
sg25
I100
sg26
g65
sbag0
(g16
g2
Ntp2469
Rp2470
(dp2471
g20
I73
sg21
g70
sg23
F0.95
sg24
F0.01
sg25
F0.99
sg26
g32
sbag0
(g16
g2
Ntp2472
Rp2473
(dp2474
g20
I75
sg21
g74
sg23
I30
sg24
I1
sg25
I300
sg26
g27
sbasg75
(dp2475
g22
g2439
sg31
g2442
sg36
g2445
sg40
g2448
sg44
g2451
sg48
g2454
sg54
g2458
sg60
g2462
sg65
g2466
sg70
g2470
sg74
g2473
ssg77
Nsbag0
(g9
g2
Ntp2476
Rp2477
(dp2478
g13
I186
sg14
(lp2479
g0
(g16
g2
Ntp2480
Rp2481
(dp2482
g20
I56
sg21
g22
sg23
I30
sg24
I1
sg25
I300
sg26
g27
sbag0
(g16
g2
Ntp2483
Rp2484
(dp2485
g20
I58
sg21
g31
sg23
F0.9999999999999999
sg24
I-1
sg25
I1
sg26
g32
sbag0
(g16
g2
Ntp2486
Rp2487
(dp2488
g20
I60
sg21
g36
sg23
F0.9999999999999999
sg24
I-1
sg25
I1
sg26
g32
sbag0
(g16
g2
Ntp2489
Rp2490
(dp2491
g20
I62
sg21
g40
sg23
F0.9999999999999999
sg24
I-1
sg25
I1
sg26
g32
sbag0
(g16
g2
Ntp2492
Rp2493
(dp2494
g20
I64
sg21
g44
sg23
F0.9999999999999999
sg24
I-1
sg25
I1
sg26
g32
sbag0
(g16
g2
Ntp2495
Rp2496
(dp2497
g20
I66
sg21
g48
sg23
(lp2498
I0
aI25
asg24
I0
sg25
I100
sg26
g50
sbag0
(g16
g2
Ntp2499
Rp2500
(dp2501
g20
I68
sg21
g54
sg23
(lp2502
F25.0
aF50.0
aF75.0
asg24
I0
sg25
I100
sg26
g56
sbag0
(g16
g2
Ntp2503
Rp2504
(dp2505
g20
I70
sg21
g60
sg23
(lp2506
F74.99999999999999
aF99.99999999999999
asg24
I0
sg25
I100
sg26
g50
sbag0
(g16
g2
Ntp2507
Rp2508
(dp2509
g20
I72
sg21
g65
sg23
(lp2510
I50
aI50
asg24
I1
sg25
I100
sg26
g65
sbag0
(g16
g2
Ntp2511
Rp2512
(dp2513
g20
I74
sg21
g70
sg23
F0.95
sg24
F0.01
sg25
F0.99
sg26
g32
sbag0
(g16
g2
Ntp2514
Rp2515
(dp2516
g20
I76
sg21
g74
sg23
I30
sg24
I1
sg25
I300
sg26
g27
sbasg75
(dp2517
g22
g2481
sg31
g2484
sg36
g2487
sg40
g2490
sg44
g2493
sg48
g2496
sg54
g2500
sg60
g2504
sg65
g2508
sg70
g2512
sg74
g2515
ssg77
Nsbag0
(g9
g2
Ntp2518
Rp2519
(dp2520
g13
I187
sg14
(lp2521
g0
(g16
g2
Ntp2522
Rp2523
(dp2524
g20
I77
sg21
g22
sg23
I161
sg24
I1
sg25
I300
sg26
g27
sbag0
(g16
g2
Ntp2525
Rp2526
(dp2527
g20
I78
sg21
g31
sg23
F0.882846255644914
sg24
I-1
sg25
I1
sg26
g32
sbag0
(g16
g2
Ntp2528
Rp2529
(dp2530
g20
I79
sg21
g36
sg23
F0.3018270104038886
sg24
I-1
sg25
I1
sg26
g32
sbag0
(g16
g2
Ntp2531
Rp2532
(dp2533
g20
I80
sg21
g40
sg23
F0.7563687023934398
sg24
I-1
sg25
I1
sg26
g32
sbag0
(g16
g2
Ntp2534
Rp2535
(dp2536
g20
I81
sg21
g44
sg23
F-0.15849705370671582
sg24
I-1
sg25
I1
sg26
g32
sbag0
(g16
g2
Ntp2537
Rp2538
(dp2539
g20
I82
sg21
g48
sg23
(lp2540
F7.257979662555853
aF31.41141819274266
asg24
I0
sg25
I100
sg26
g50
sbag0
(g16
g2
Ntp2541
Rp2542
(dp2543
g20
I83
sg21
g54
sg23
(lp2544
F0.09657693237711625
aF10.68228588452257
aF32.07332381637567
asg24
I0
sg25
I100
sg26
g56
sbag0
(g16
g2
Ntp2545
Rp2546
(dp2547
g20
I84
sg21
g60
sg23
(lp2548
F61.643764301169185
aF96.96604851656716
asg24
I0
sg25
I100
sg26
g50
sbag0
(g16
g2
Ntp2549
Rp2550
(dp2551
g20
I85
sg21
g65
sg23
(lp2552
F31.96115272402763
aF42.02514009449341
asg24
I1
sg25
I100
sg26
g65
sbag0
(g16
g2
Ntp2553
Rp2554
(dp2555
g20
I86
sg21
g70
sg23
F0.49559145409254335
sg24
F0.01
sg25
F0.99
sg26
g32
sbag0
(g16
g2
Ntp2556
Rp2557
(dp2558
g20
I87
sg21
g74
sg23
I92
sg24
I1
sg25
I300
sg26
g27
sbasg75
(dp2559
g22
g2523
sg31
g2526
sg36
g2529
sg40
g2532
sg44
g2535
sg48
g2538
sg54
g2542
sg60
g2546
sg65
g2550
sg70
g2554
sg74
g2557
ssg77
Nsbag0
(g9
g2
Ntp2560
Rp2561
(dp2562
g13
I188
sg14
g2521
sg75
(dp2563
g22
g2523
sg31
g2526
sg36
g2529
sg40
g2532
sg44
g2535
sg48
g2538
sg54
g2542
sg60
g2546
sg65
g2550
sg70
g2554
sg74
g2557
ssg77
Nsbag0
(g9
g2
Ntp2564
Rp2565
(dp2566
g13
I189
sg14
(lp2567
g0
(g16
g2
Ntp2568
Rp2569
(dp2570
g20
I88
sg21
g22
sg23
I40
sg24
I1
sg25
I300
sg26
g27
sbag0
(g16
g2
Ntp2571
Rp2572
(dp2573
g20
I90
sg21
g31
sg23
F-0.9027480803007784
sg24
I-1
sg25
I1
sg26
g32
sbag0
(g16
g2
Ntp2574
Rp2575
(dp2576
g20
I92
sg21
g36
sg23
F0.8762888637373294
sg24
I-1
sg25
I1
sg26
g32
sbag0
(g16
g2
Ntp2577
Rp2578
(dp2579
g20
I94
sg21
g40
sg23
F0.9561170235886243
sg24
I-1
sg25
I1
sg26
g32
sbag0
(g16
g2
Ntp2580
Rp2581
(dp2582
g20
I96
sg21
g44
sg23
F0.9946146111208929
sg24
I-1
sg25
I1
sg26
g32
sbag0
(g16
g2
Ntp2583
Rp2584
(dp2585
g20
I98
sg21
g48
sg23
(lp2586
F2.098298667402703
aF26.853555793135953
asg24
I0
sg25
I100
sg26
g50
sbag0
(g16
g2
Ntp2587
Rp2588
(dp2589
g20
I100
sg21
g54
sg23
(lp2590
F47.678710586029155
aF86.76044994567808
aF97.11626508513851
asg24
I0
sg25
I100
sg26
g56
sbag0
(g16
g2
Ntp2591
Rp2592
(dp2593
g20
I102
sg21
g60
sg23
(lp2594
F65.9132059097146
aF97.93587856402658
asg24
I0
sg25
I100
sg26
g50
sbag0
(g16
g2
Ntp2595
Rp2596
(dp2597
g20
I104
sg21
g65
sg23
(lp2598
F45.184195593654216
aF47.870963433229754
asg24
I1
sg25
I100
sg26
g65
sbag0
(g16
g2
Ntp2599
Rp2600
(dp2601
g20
I106
sg21
g70
sg23
F0.9825535419633196
sg24
F0.01
sg25
F0.99
sg26
g32
sbag0
(g16
g2
Ntp2602
Rp2603
(dp2604
g20
I108
sg21
g74
sg23
I49
sg24
I1
sg25
I300
sg26
g27
sbasg75
(dp2605
g22
g2569
sg31
g2572
sg36
g2575
sg40
g2578
sg44
g2581
sg48
g2584
sg54
g2588
sg60
g2592
sg65
g2596
sg70
g2600
sg74
g2603
ssg77
Nsbag0
(g9
g2
Ntp2606
Rp2607
(dp2608
g13
I190
sg14
(lp2609
g0
(g16
g2
Ntp2610
Rp2611
(dp2612
g20
I89
sg21
g22
sg23
I175
sg24
I1
sg25
I300
sg26
g27
sbag0
(g16
g2
Ntp2613
Rp2614
(dp2615
g20
I91
sg21
g31
sg23
F0.7451488541441953
sg24
I-1
sg25
I1
sg26
g32
sbag0
(g16
g2
Ntp2616
Rp2617
(dp2618
g20
I93
sg21
g36
sg23
F-0.07128783238110739
sg24
I-1
sg25
I1
sg26
g32
sbag0
(g16
g2
Ntp2619
Rp2620
(dp2621
g20
I95
sg21
g40
sg23
F0.4585736635829165
sg24
I-1
sg25
I1
sg26
g32
sbag0
(g16
g2
Ntp2622
Rp2623
(dp2624
g20
I97
sg21
g44
sg23
F-0.9902376610389669
sg24
I-1
sg25
I1
sg26
g32
sbag0
(g16
g2
Ntp2625
Rp2626
(dp2627
g20
I99
sg21
g48
sg23
(lp2628
F77.69548892869608
aF93.63318641982266
asg24
I0
sg25
I100
sg26
g50
sbag0
(g16
g2
Ntp2629
Rp2630
(dp2631
g20
I101
sg21
g54
sg23
(lp2632
F23.47342421394721
aF25.8597130291958
aF70.51516757098226
asg24
I0
sg25
I100
sg26
g56
sbag0
(g16
g2
Ntp2633
Rp2634
(dp2635
g20
I103
sg21
g60
sg23
(lp2636
F36.86035813545985
aF91.33634463918241
asg24
I0
sg25
I100
sg26
g50
sbag0
(g16
g2
Ntp2637
Rp2638
(dp2639
g20
I105
sg21
g65
sg23
(lp2640
F12.358386219253795
aF33.35888142262372
asg24
I1
sg25
I100
sg26
g65
sbag0
(g16
g2
Ntp2641
Rp2642
(dp2643
g20
I107
sg21
g70
sg23
F0.3689501232441984
sg24
F0.01
sg25
F0.99
sg26
g32
sbag0
(g16
g2
Ntp2644
Rp2645
(dp2646
g20
I109
sg21
g74
sg23
I122
sg24
I1
sg25
I300
sg26
g27
sbasg75
(dp2647
g22
g2611
sg31
g2614
sg36
g2617
sg40
g2620
sg44
g2623
sg48
g2626
sg54
g2630
sg60
g2634
sg65
g2638
sg70
g2642
sg74
g2645
ssg77
Nsbag0
(g9
g2
Ntp2648
Rp2649
(dp2650
g13
I191
sg14
(lp2651
g0
(g16
g2
Ntp2652
Rp2653
(dp2654
g20
I0
sg21
g22
sg23
I30
sg24
I1
sg25
I300
sg26
g27
sbag0
(g16
g2
Ntp2655
Rp2656
(dp2657
g20
I1
sg21
g31
sg23
I1
sg24
I-1
sg25
I1
sg26
g32
sbag0
(g16
g2
Ntp2658
Rp2659
(dp2660
g20
I2
sg21
g36
sg23
I1
sg24
I-1
sg25
I1
sg26
g32
sbag0
(g16
g2
Ntp2661
Rp2662
(dp2663
g20
I3
sg21
g40
sg23
I1
sg24
I-1
sg25
I1
sg26
g32
sbag0
(g16
g2
Ntp2664
Rp2665
(dp2666
g20
I4
sg21
g44
sg23
I1
sg24
I-1
sg25
I1
sg26
g32
sbag0
(g16
g2
Ntp2667
Rp2668
(dp2669
g20
I5
sg21
g48
sg23
(lp2670
I0
aI25
asg24
I0
sg25
I100
sg26
g50
sbag0
(g16
g2
Ntp2671
Rp2672
(dp2673
g20
I6
sg21
g54
sg23
(lp2674
I25
aI50
aI75
asg24
I0
sg25
I100
sg26
g56
sbag0
(g16
g2
Ntp2675
Rp2676
(dp2677
g20
I7
sg21
g60
sg23
(lp2678
I75
aI100
asg24
I0
sg25
I100
sg26
g50
sbag0
(g16
g2
Ntp2679
Rp2680
(dp2681
g20
I8
sg21
g65
sg23
(lp2682
I50
aI50
asg24
I1
sg25
I100
sg26
g65
sbag0
(g16
g2
Ntp2683
Rp2684
(dp2685
g20
I9
sg21
g70
sg23
F0.95
sg24
F0.01
sg25
F0.99
sg26
g32
sbag0
(g16
g2
Ntp2686
Rp2687
(dp2688
g20
I10
sg21
g74
sg23
I30
sg24
I1
sg25
I300
sg26
g27
sbasg75
(dp2689
g22
g2653
sg31
g2656
sg36
g2659
sg40
g2662
sg44
g2665
sg48
g2668
sg54
g2672
sg60
g2676
sg65
g2680
sg70
g2684
sg74
g2687
ssg77
Nsbag0
(g9
g2
Ntp2690
Rp2691
(dp2692
g13
I192
sg14
(lp2693
g0
(g16
g2
Ntp2694
Rp2695
(dp2696
g20
I0
sg21
g22
sg23
I30
sg24
I1
sg25
I300
sg26
g27
sbag0
(g16
g2
Ntp2697
Rp2698
(dp2699
g20
I1
sg21
g31
sg23
I1
sg24
I-1
sg25
I1
sg26
g32
sbag0
(g16
g2
Ntp2700
Rp2701
(dp2702
g20
I2
sg21
g36
sg23
I1
sg24
I-1
sg25
I1
sg26
g32
sbag0
(g16
g2
Ntp2703
Rp2704
(dp2705
g20
I3
sg21
g40
sg23
I1
sg24
I-1
sg25
I1
sg26
g32
sbag0
(g16
g2
Ntp2706
Rp2707
(dp2708
g20
I4
sg21
g44
sg23
I1
sg24
I-1
sg25
I1
sg26
g32
sbag0
(g16
g2
Ntp2709
Rp2710
(dp2711
g20
I5
sg21
g48
sg23
(lp2712
I0
aI25
asg24
I0
sg25
I100
sg26
g50
sbag0
(g16
g2
Ntp2713
Rp2714
(dp2715
g20
I6
sg21
g54
sg23
(lp2716
I25
aI50
aI75
asg24
I0
sg25
I100
sg26
g56
sbag0
(g16
g2
Ntp2717
Rp2718
(dp2719
g20
I7
sg21
g60
sg23
(lp2720
I75
aI100
asg24
I0
sg25
I100
sg26
g50
sbag0
(g16
g2
Ntp2721
Rp2722
(dp2723
g20
I8
sg21
g65
sg23
(lp2724
I50
aI50
asg24
I1
sg25
I100
sg26
g65
sbag0
(g16
g2
Ntp2725
Rp2726
(dp2727
g20
I9
sg21
g70
sg23
F0.95
sg24
F0.01
sg25
F0.99
sg26
g32
sbag0
(g16
g2
Ntp2728
Rp2729
(dp2730
g20
I10
sg21
g74
sg23
I30
sg24
I1
sg25
I300
sg26
g27
sbasg75
(dp2731
g22
g2695
sg31
g2698
sg36
g2701
sg40
g2704
sg44
g2707
sg48
g2710
sg54
g2714
sg60
g2718
sg65
g2722
sg70
g2726
sg74
g2729
ssg77
Nsbag0
(g9
g2
Ntp2732
Rp2733
(dp2734
g13
I193
sg14
(lp2735
g0
(g16
g2
Ntp2736
Rp2737
(dp2738
g20
I0
sg21
g22
sg23
I30
sg24
I1
sg25
I300
sg26
g27
sbag0
(g16
g2
Ntp2739
Rp2740
(dp2741
g20
I1
sg21
g31
sg23
I1
sg24
I-1
sg25
I1
sg26
g32
sbag0
(g16
g2
Ntp2742
Rp2743
(dp2744
g20
I2
sg21
g36
sg23
I1
sg24
I-1
sg25
I1
sg26
g32
sbag0
(g16
g2
Ntp2745
Rp2746
(dp2747
g20
I3
sg21
g40
sg23
I1
sg24
I-1
sg25
I1
sg26
g32
sbag0
(g16
g2
Ntp2748
Rp2749
(dp2750
g20
I4
sg21
g44
sg23
I1
sg24
I-1
sg25
I1
sg26
g32
sbag0
(g16
g2
Ntp2751
Rp2752
(dp2753
g20
I5
sg21
g48
sg23
(lp2754
I0
aI25
asg24
I0
sg25
I100
sg26
g50
sbag0
(g16
g2
Ntp2755
Rp2756
(dp2757
g20
I6
sg21
g54
sg23
(lp2758
I25
aI50
aI75
asg24
I0
sg25
I100
sg26
g56
sbag0
(g16
g2
Ntp2759
Rp2760
(dp2761
g20
I7
sg21
g60
sg23
(lp2762
F74.57321795551599
aF98.88146116966641
asg24
I0
sg25
I100
sg26
g50
sbag0
(g16
g2
Ntp2763
Rp2764
(dp2765
g20
I8
sg21
g65
sg23
(lp2766
I50
aI50
asg24
I1
sg25
I100
sg26
g65
sbag0
(g16
g2
Ntp2767
Rp2768
(dp2769
g20
I9
sg21
g70
sg23
F0.95
sg24
F0.01
sg25
F0.99
sg26
g32
sbag0
(g16
g2
Ntp2770
Rp2771
(dp2772
g20
I10
sg21
g74
sg23
I30
sg24
I1
sg25
I300
sg26
g27
sbasg75
(dp2773
g22
g2737
sg31
g2740
sg36
g2743
sg40
g2746
sg44
g2749
sg48
g2752
sg54
g2756
sg60
g2760
sg65
g2764
sg70
g2768
sg74
g2771
ssg77
Nsbag0
(g9
g2
Ntp2774
Rp2775
(dp2776
g13
I194
sg14
(lp2777
g0
(g16
g2
Ntp2778
Rp2779
(dp2780
g20
I0
sg21
g22
sg23
I30
sg24
I1
sg25
I300
sg26
g27
sbag0
(g16
g2
Ntp2781
Rp2782
(dp2783
g20
I1
sg21
g31
sg23
I1
sg24
I-1
sg25
I1
sg26
g32
sbag0
(g16
g2
Ntp2784
Rp2785
(dp2786
g20
I2
sg21
g36
sg23
I1
sg24
I-1
sg25
I1
sg26
g32
sbag0
(g16
g2
Ntp2787
Rp2788
(dp2789
g20
I3
sg21
g40
sg23
I1
sg24
I-1
sg25
I1
sg26
g32
sbag0
(g16
g2
Ntp2790
Rp2791
(dp2792
g20
I4
sg21
g44
sg23
I1
sg24
I-1
sg25
I1
sg26
g32
sbag0
(g16
g2
Ntp2793
Rp2794
(dp2795
g20
I5
sg21
g48
sg23
(lp2796
I0
aI25
asg24
I0
sg25
I100
sg26
g50
sbag0
(g16
g2
Ntp2797
Rp2798
(dp2799
g20
I6
sg21
g54
sg23
(lp2800
I25
aI50
aI75
asg24
I0
sg25
I100
sg26
g56
sbag0
(g16
g2
Ntp2801
Rp2802
(dp2803
g20
I7
sg21
g60
sg23
(lp2804
I75
aI100
asg24
I0
sg25
I100
sg26
g50
sbag0
(g16
g2
Ntp2805
Rp2806
(dp2807
g20
I8
sg21
g65
sg23
(lp2808
I50
aI50
asg24
I1
sg25
I100
sg26
g65
sbag0
(g16
g2
Ntp2809
Rp2810
(dp2811
g20
I9
sg21
g70
sg23
F0.95
sg24
F0.01
sg25
F0.99
sg26
g32
sbag0
(g16
g2
Ntp2812
Rp2813
(dp2814
g20
I10
sg21
g74
sg23
I30
sg24
I1
sg25
I300
sg26
g27
sbasg75
(dp2815
g22
g2779
sg31
g2782
sg36
g2785
sg40
g2788
sg44
g2791
sg48
g2794
sg54
g2798
sg60
g2802
sg65
g2806
sg70
g2810
sg74
g2813
ssg77
Nsbag0
(g9
g2
Ntp2816
Rp2817
(dp2818
g13
I195
sg14
(lp2819
g0
(g16
g2
Ntp2820
Rp2821
(dp2822
g20
I56
sg21
g22
sg23
I30
sg24
I1
sg25
I300
sg26
g27
sbag0
(g16
g2
Ntp2823
Rp2824
(dp2825
g20
I12
sg21
g31
sg23
F0.7356226176050575
sg24
I-1
sg25
I1
sg26
g32
sbag0
(g16
g2
Ntp2826
Rp2827
(dp2828
g20
I60
sg21
g36
sg23
F0.9999999999999999
sg24
I-1
sg25
I1
sg26
g32
sbag0
(g16
g2
Ntp2829
Rp2830
(dp2831
g20
I62
sg21
g40
sg23
F0.9999999999999999
sg24
I-1
sg25
I1
sg26
g32
sbag0
(g16
g2
Ntp2832
Rp2833
(dp2834
g20
I15
sg21
g44
sg23
F-0.995623049918074
sg24
I-1
sg25
I1
sg26
g32
sbag0
(g16
g2
Ntp2835
Rp2836
(dp2837
g20
I66
sg21
g48
sg23
(lp2838
I0
aI25
asg24
I0
sg25
I100
sg26
g50
sbag0
(g16
g2
Ntp2839
Rp2840
(dp2841
g20
I68
sg21
g54
sg23
(lp2842
F25.0
aF50.0
aF75.0
asg24
I0
sg25
I100
sg26
g56
sbag0
(g16
g2
Ntp2843
Rp2844
(dp2845
g20
I18
sg21
g60
sg23
(lp2846
F27.77356404517445
aF89.272223203209
asg24
I0
sg25
I100
sg26
g50
sbag0
(g16
g2
Ntp2847
Rp2848
(dp2849
g20
I19
sg21
g65
sg23
(lp2850
F7.542581812908014
aF31.229844855853475
asg24
I1
sg25
I100
sg26
g65
sbag0
(g16
g2
Ntp2851
Rp2852
(dp2853
g20
I74
sg21
g70
sg23
F0.95
sg24
F0.01
sg25
F0.99
sg26
g32
sbag0
(g16
g2
Ntp2854
Rp2855
(dp2856
g20
I76
sg21
g74
sg23
I30
sg24
I1
sg25
I300
sg26
g27
sbasg75
(dp2857
g22
g2821
sg31
g2824
sg36
g2827
sg40
g2830
sg44
g2833
sg48
g2836
sg54
g2840
sg60
g2844
sg65
g2848
sg70
g2852
sg74
g2855
ssg77
Nsbag0
(g9
g2
Ntp2858
Rp2859
(dp2860
g13
I196
sg14
(lp2861
g0
(g16
g2
Ntp2862
Rp2863
(dp2864
g20
I11
sg21
g22
sg23
I38
sg24
I1
sg25
I300
sg26
g27
sbag0
(g16
g2
Ntp2865
Rp2866
(dp2867
g20
I58
sg21
g31
sg23
F0.9999999999999999
sg24
I-1
sg25
I1
sg26
g32
sbag0
(g16
g2
Ntp2868
Rp2869
(dp2870
g20
I13
sg21
g36
sg23
F-0.19499896864377808
sg24
I-1
sg25
I1
sg26
g32
sbag0
(g16
g2
Ntp2871
Rp2872
(dp2873
g20
I14
sg21
g40
sg23
F0.6553687374010722
sg24
I-1
sg25
I1
sg26
g32
sbag0
(g16
g2
Ntp2874
Rp2875
(dp2876
g20
I64
sg21
g44
sg23
F0.9999999999999999
sg24
I-1
sg25
I1
sg26
g32
sbag0
(g16
g2
Ntp2877
Rp2878
(dp2879
g20
I16
sg21
g48
sg23
(lp2880
F63.37619698751213
aF76.05567684514904
asg24
I0
sg25
I100
sg26
g50
sbag0
(g16
g2
Ntp2881
Rp2882
(dp2883
g20
I17
sg21
g54
sg23
(lp2884
F25.299346036955733
aF30.4537501690068
aF72.52181701608436
asg24
I0
sg25
I100
sg26
g56
sbag0
(g16
g2
Ntp2885
Rp2886
(dp2887
g20
I70
sg21
g60
sg23
(lp2888
F74.99999999999999
aF99.99999999999999
asg24
I0
sg25
I100
sg26
g50
sbag0
(g16
g2
Ntp2889
Rp2890
(dp2891
g20
I72
sg21
g65
sg23
(lp2892
I50
aI50
asg24
I1
sg25
I100
sg26
g65
sbag0
(g16
g2
Ntp2893
Rp2894
(dp2895
g20
I20
sg21
g70
sg23
F0.40150366520751796
sg24
F0.01
sg25
F0.99
sg26
g32
sbag0
(g16
g2
Ntp2896
Rp2897
(dp2898
g20
I21
sg21
g74
sg23
I142
sg24
I1
sg25
I300
sg26
g27
sbasg75
(dp2899
g22
g2863
sg31
g2866
sg36
g2869
sg40
g2872
sg44
g2875
sg48
g2878
sg54
g2882
sg60
g2886
sg65
g2890
sg70
g2894
sg74
g2897
ssg77
Nsbag0
(g9
g2
Ntp2900
Rp2901
(dp2902
g13
I197
sg14
(lp2903
g0
(g16
g2
Ntp2904
Rp2905
(dp2906
g20
I0
sg21
g22
sg23
I30
sg24
I1
sg25
I300
sg26
g27
sbag0
(g16
g2
Ntp2907
Rp2908
(dp2909
g20
I1
sg21
g31
sg23
I1
sg24
I-1
sg25
I1
sg26
g32
sbag0
(g16
g2
Ntp2910
Rp2911
(dp2912
g20
I2
sg21
g36
sg23
I1
sg24
I-1
sg25
I1
sg26
g32
sbag0
(g16
g2
Ntp2913
Rp2914
(dp2915
g20
I3
sg21
g40
sg23
I1
sg24
I-1
sg25
I1
sg26
g32
sbag0
(g16
g2
Ntp2916
Rp2917
(dp2918
g20
I4
sg21
g44
sg23
I1
sg24
I-1
sg25
I1
sg26
g32
sbag0
(g16
g2
Ntp2919
Rp2920
(dp2921
g20
I5
sg21
g48
sg23
(lp2922
I0
aI25
asg24
I0
sg25
I100
sg26
g50
sbag0
(g16
g2
Ntp2923
Rp2924
(dp2925
g20
I6
sg21
g54
sg23
(lp2926
I25
aI50
aI75
asg24
I0
sg25
I100
sg26
g56
sbag0
(g16
g2
Ntp2927
Rp2928
(dp2929
g20
I7
sg21
g60
sg23
(lp2930
I75
aI100
asg24
I0
sg25
I100
sg26
g50
sbag0
(g16
g2
Ntp2931
Rp2932
(dp2933
g20
I8
sg21
g65
sg23
(lp2934
I50
aI50
asg24
I1
sg25
I100
sg26
g65
sbag0
(g16
g2
Ntp2935
Rp2936
(dp2937
g20
I9
sg21
g70
sg23
F0.95
sg24
F0.01
sg25
F0.99
sg26
g32
sbag0
(g16
g2
Ntp2938
Rp2939
(dp2940
g20
I10
sg21
g74
sg23
I30
sg24
I1
sg25
I300
sg26
g27
sbasg75
(dp2941
g22
g2905
sg31
g2908
sg36
g2911
sg40
g2914
sg44
g2917
sg48
g2920
sg54
g2924
sg60
g2928
sg65
g2932
sg70
g2936
sg74
g2939
ssg77
Nsbag0
(g9
g2
Ntp2942
Rp2943
(dp2944
g13
I198
sg14
(lp2945
g0
(g16
g2
Ntp2946
Rp2947
(dp2948
g20
I0
sg21
g22
sg23
I30
sg24
I1
sg25
I300
sg26
g27
sbag0
(g16
g2
Ntp2949
Rp2950
(dp2951
g20
I1
sg21
g31
sg23
I1
sg24
I-1
sg25
I1
sg26
g32
sbag0
(g16
g2
Ntp2952
Rp2953
(dp2954
g20
I2
sg21
g36
sg23
I1
sg24
I-1
sg25
I1
sg26
g32
sbag0
(g16
g2
Ntp2955
Rp2956
(dp2957
g20
I3
sg21
g40
sg23
I1
sg24
I-1
sg25
I1
sg26
g32
sbag0
(g16
g2
Ntp2958
Rp2959
(dp2960
g20
I4
sg21
g44
sg23
I1
sg24
I-1
sg25
I1
sg26
g32
sbag0
(g16
g2
Ntp2961
Rp2962
(dp2963
g20
I5
sg21
g48
sg23
(lp2964
I0
aI25
asg24
I0
sg25
I100
sg26
g50
sbag0
(g16
g2
Ntp2965
Rp2966
(dp2967
g20
I6
sg21
g54
sg23
(lp2968
I25
aI50
aI75
asg24
I0
sg25
I100
sg26
g56
sbag0
(g16
g2
Ntp2969
Rp2970
(dp2971
g20
I7
sg21
g60
sg23
(lp2972
I75
aI100
asg24
I0
sg25
I100
sg26
g50
sbag0
(g16
g2
Ntp2973
Rp2974
(dp2975
g20
I8
sg21
g65
sg23
(lp2976
I50
aI50
asg24
I1
sg25
I100
sg26
g65
sbag0
(g16
g2
Ntp2977
Rp2978
(dp2979
g20
I9
sg21
g70
sg23
F0.95
sg24
F0.01
sg25
F0.99
sg26
g32
sbag0
(g16
g2
Ntp2980
Rp2981
(dp2982
g20
I10
sg21
g74
sg23
I30
sg24
I1
sg25
I300
sg26
g27
sbasg75
(dp2983
g22
g2947
sg31
g2950
sg36
g2953
sg40
g2956
sg44
g2959
sg48
g2962
sg54
g2966
sg60
g2970
sg65
g2974
sg70
g2978
sg74
g2981
ssg77
Nsbag0
(g9
g2
Ntp2984
Rp2985
(dp2986
g13
I199
sg14
(lp2987
g0
(g16
g2
Ntp2988
Rp2989
(dp2990
g20
I33
sg21
g22
sg23
I48
sg24
I1
sg25
I300
sg26
g27
sbag0
(g16
g2
Ntp2991
Rp2992
(dp2993
g20
I35
sg21
g31
sg23
F0.9874349869413968
sg24
I-1
sg25
I1
sg26
g32
sbag0
(g16
g2
Ntp2994
Rp2995
(dp2996
g20
I2
sg21
g36
sg23
I1
sg24
I-1
sg25
I1
sg26
g32
sbag0
(g16
g2
Ntp2997
Rp2998
(dp2999
g20
I39
sg21
g40
sg23
F0.9431995954474146
sg24
I-1
sg25
I1
sg26
g32
sbag0
(g16
g2
Ntp3000
Rp3001
(dp3002
g20
I41
sg21
g44
sg23
F0.6753816819898019
sg24
I-1
sg25
I1
sg26
g32
sbag0
(g16
g2
Ntp3003
Rp3004
(dp3005
g20
I43
sg21
g48
sg23
(lp3006
F2.0897145542941282
aF26.845972920007114
asg24
I0
sg25
I100
sg26
g50
sbag0
(g16
g2
Ntp3007
Rp3008
(dp3009
g20
I45
sg21
g54
sg23
(lp3010
F24.95314070262912
aF53.0597483188041
aF75.38793202196267
asg24
I0
sg25
I100
sg26
g56
sbag0
(g16
g2
Ntp3011
Rp3012
(dp3013
g20
I47
sg21
g60
sg23
(lp3014
F74.56440652860127
aF99.90105225090932
asg24
I0
sg25
I100
sg26
g50
sbag0
(g16
g2
Ntp3015
Rp3016
(dp3017
g20
I49
sg21
g65
sg23
(lp3018
F47.018731081055044
aF48.68199993017871
asg24
I1
sg25
I100
sg26
g65
sbag0
(g16
g2
Ntp3019
Rp3020
(dp3021
g20
I51
sg21
g70
sg23
F0.9304820037053343
sg24
F0.01
sg25
F0.99
sg26
g32
sbag0
(g16
g2
Ntp3022
Rp3023
(dp3024
g20
I53
sg21
g74
sg23
I7
sg24
I1
sg25
I300
sg26
g27
sbasg75
(dp3025
g22
g2989
sg31
g2992
sg36
g2995
sg40
g2998
sg44
g3001
sg48
g3004
sg54
g3008
sg60
g3012
sg65
g3016
sg70
g3020
sg74
g3023
ssg77
Nsbag0
(g9
g2
Ntp3026
Rp3027
(dp3028
g13
I200
sg14
(lp3029
g0
(g16
g2
Ntp3030
Rp3031
(dp3032
g20
I0
sg21
g22
sg23
I30
sg24
I1
sg25
I300
sg26
g27
sbag0
(g16
g2
Ntp3033
Rp3034
(dp3035
g20
I1
sg21
g31
sg23
I1
sg24
I-1
sg25
I1
sg26
g32
sbag0
(g16
g2
Ntp3036
Rp3037
(dp3038
g20
I37
sg21
g36
sg23
F0.9926424757260008
sg24
I-1
sg25
I1
sg26
g32
sbag0
(g16
g2
Ntp3039
Rp3040
(dp3041
g20
I3
sg21
g40
sg23
I1
sg24
I-1
sg25
I1
sg26
g32
sbag0
(g16
g2
Ntp3042
Rp3043
(dp3044
g20
I4
sg21
g44
sg23
I1
sg24
I-1
sg25
I1
sg26
g32
sbag0
(g16
g2
Ntp3045
Rp3046
(dp3047
g20
I5
sg21
g48
sg23
(lp3048
I0
aI25
asg24
I0
sg25
I100
sg26
g50
sbag0
(g16
g2
Ntp3049
Rp3050
(dp3051
g20
I6
sg21
g54
sg23
(lp3052
I25
aI50
aI75
asg24
I0
sg25
I100
sg26
g56
sbag0
(g16
g2
Ntp3053
Rp3054
(dp3055
g20
I7
sg21
g60
sg23
(lp3056
I75
aI100
asg24
I0
sg25
I100
sg26
g50
sbag0
(g16
g2
Ntp3057
Rp3058
(dp3059
g20
I8
sg21
g65
sg23
(lp3060
I50
aI50
asg24
I1
sg25
I100
sg26
g65
sbag0
(g16
g2
Ntp3061
Rp3062
(dp3063
g20
I9
sg21
g70
sg23
F0.95
sg24
F0.01
sg25
F0.99
sg26
g32
sbag0
(g16
g2
Ntp3064
Rp3065
(dp3066
g20
I10
sg21
g74
sg23
I30
sg24
I1
sg25
I300
sg26
g27
sbasg75
(dp3067
g22
g3031
sg31
g3034
sg36
g3037
sg40
g3040
sg44
g3043
sg48
g3046
sg54
g3050
sg60
g3054
sg65
g3058
sg70
g3062
sg74
g3065
ssg77
Nsbag0
(g9
g2
Ntp3068
Rp3069
(dp3070
g13
I201
sg14
(lp3071
g0
(g16
g2
Ntp3072
Rp3073
(dp3074
g20
I11
sg21
g22
sg23
I212
sg24
I1
sg25
I300
sg26
g27
sbag0
(g16
g2
Ntp3075
Rp3076
(dp3077
g20
I12
sg21
g31
sg23
F0.7356226176050575
sg24
I-1
sg25
I1
sg26
g32
sbag0
(g16
g2
Ntp3078
Rp3079
(dp3080
g20
I13
sg21
g36
sg23
F-0.19499896864377808
sg24
I-1
sg25
I1
sg26
g32
sbag0
(g16
g2
Ntp3081
Rp3082
(dp3083
g20
I14
sg21
g40
sg23
F0.6553687374010722
sg24
I-1
sg25
I1
sg26
g32
sbag0
(g16
g2
Ntp3084
Rp3085
(dp3086
g20
I15
sg21
g44
sg23
F-0.995623049918074
sg24
I-1
sg25
I1
sg26
g32
sbag0
(g16
g2
Ntp3087
Rp3088
(dp3089
g20
I5
sg21
g48
sg23
(lp3090
I0
aI25
asg24
I0
sg25
I100
sg26
g50
sbag0
(g16
g2
Ntp3091
Rp3092
(dp3093
g20
I6
sg21
g54
sg23
(lp3094
I25
aI50
aI75
asg24
I0
sg25
I100
sg26
g56
sbag0
(g16
g2
Ntp3095
Rp3096
(dp3097
g20
I7
sg21
g60
sg23
(lp3098
F74.57321795551599
aF98.88146116966641
asg24
I0
sg25
I100
sg26
g50
sbag0
(g16
g2
Ntp3099
Rp3100
(dp3101
g20
I8
sg21
g65
sg23
(lp3102
I50
aI50
asg24
I1
sg25
I100
sg26
g65
sbag0
(g16
g2
Ntp3103
Rp3104
(dp3105
g20
I20
sg21
g70
sg23
F0.40150366520751796
sg24
F0.01
sg25
F0.99
sg26
g32
sbag0
(g16
g2
Ntp3106
Rp3107
(dp3108
g20
I21
sg21
g74
sg23
I142
sg24
I1
sg25
I300
sg26
g27
sbasg75
(dp3109
g22
g3073
sg31
g3076
sg36
g3079
sg40
g3082
sg44
g3085
sg48
g3088
sg54
g3092
sg60
g3096
sg65
g3100
sg70
g3104
sg74
g3107
ssg77
Nsbag0
(g9
g2
Ntp3110
Rp3111
(dp3112
g13
I202
sg14
(lp3113
g0
(g16
g2
Ntp3114
Rp3115
(dp3116
g20
I0
sg21
g22
sg23
I30
sg24
I1
sg25
I300
sg26
g27
sbag0
(g16
g2
Ntp3117
Rp3118
(dp3119
g20
I1
sg21
g31
sg23
I1
sg24
I-1
sg25
I1
sg26
g32
sbag0
(g16
g2
Ntp3120
Rp3121
(dp3122
g20
I2
sg21
g36
sg23
I1
sg24
I-1
sg25
I1
sg26
g32
sbag0
(g16
g2
Ntp3123
Rp3124
(dp3125
g20
I3
sg21
g40
sg23
I1
sg24
I-1
sg25
I1
sg26
g32
sbag0
(g16
g2
Ntp3126
Rp3127
(dp3128
g20
I4
sg21
g44
sg23
I1
sg24
I-1
sg25
I1
sg26
g32
sbag0
(g16
g2
Ntp3129
Rp3130
(dp3131
g20
I16
sg21
g48
sg23
(lp3132
F79.79378759609878
aF95.48674221295862
asg24
I0
sg25
I100
sg26
g50
sbag0
(g16
g2
Ntp3133
Rp3134
(dp3135
g20
I17
sg21
g54
sg23
(lp3136
F25.299346036955733
aF30.4537501690068
aF72.52181701608436
asg24
I0
sg25
I100
sg26
g56
sbag0
(g16
g2
Ntp3137
Rp3138
(dp3139
g20
I18
sg21
g60
sg23
(lp3140
F27.77356404517445
aF89.272223203209
asg24
I0
sg25
I100
sg26
g50
sbag0
(g16
g2
Ntp3141
Rp3142
(dp3143
g20
I19
sg21
g65
sg23
(lp3144
F7.542581812908014
aF31.229844855853475
asg24
I1
sg25
I100
sg26
g65
sbag0
(g16
g2
Ntp3145
Rp3146
(dp3147
g20
I9
sg21
g70
sg23
F0.95
sg24
F0.01
sg25
F0.99
sg26
g32
sbag0
(g16
g2
Ntp3148
Rp3149
(dp3150
g20
I10
sg21
g74
sg23
I30
sg24
I1
sg25
I300
sg26
g27
sbasg75
(dp3151
g22
g3115
sg31
g3118
sg36
g3121
sg40
g3124
sg44
g3127
sg48
g3130
sg54
g3134
sg60
g3138
sg65
g3142
sg70
g3146
sg74
g3149
ssg77
Nsbag0
(g9
g2
Ntp3152
Rp3153
(dp3154
g13
I203
sg14
(lp3155
g0
(g16
g2
Ntp3156
Rp3157
(dp3158
g20
I0
sg21
g22
sg23
I30
sg24
I1
sg25
I300
sg26
g27
sbag0
(g16
g2
Ntp3159
Rp3160
(dp3161
g20
I1
sg21
g31
sg23
I1
sg24
I-1
sg25
I1
sg26
g32
sbag0
(g16
g2
Ntp3162
Rp3163
(dp3164
g20
I2
sg21
g36
sg23
I1
sg24
I-1
sg25
I1
sg26
g32
sbag0
(g16
g2
Ntp3165
Rp3166
(dp3167
g20
I3
sg21
g40
sg23
I1
sg24
I-1
sg25
I1
sg26
g32
sbag0
(g16
g2
Ntp3168
Rp3169
(dp3170
g20
I4
sg21
g44
sg23
I1
sg24
I-1
sg25
I1
sg26
g32
sbag0
(g16
g2
Ntp3171
Rp3172
(dp3173
g20
I5
sg21
g48
sg23
(lp3174
I0
aI25
asg24
I0
sg25
I100
sg26
g50
sbag0
(g16
g2
Ntp3175
Rp3176
(dp3177
g20
I6
sg21
g54
sg23
(lp3178
I25
aI50
aI75
asg24
I0
sg25
I100
sg26
g56
sbag0
(g16
g2
Ntp3179
Rp3180
(dp3181
g20
I7
sg21
g60
sg23
(lp3182
I75
aI100
asg24
I0
sg25
I100
sg26
g50
sbag0
(g16
g2
Ntp3183
Rp3184
(dp3185
g20
I8
sg21
g65
sg23
(lp3186
I50
aI50
asg24
I1
sg25
I100
sg26
g65
sbag0
(g16
g2
Ntp3187
Rp3188
(dp3189
g20
I9
sg21
g70
sg23
F0.95
sg24
F0.01
sg25
F0.99
sg26
g32
sbag0
(g16
g2
Ntp3190
Rp3191
(dp3192
g20
I10
sg21
g74
sg23
I30
sg24
I1
sg25
I300
sg26
g27
sbasg75
(dp3193
g22
g3157
sg31
g3160
sg36
g3163
sg40
g3166
sg44
g3169
sg48
g3172
sg54
g3176
sg60
g3180
sg65
g3184
sg70
g3188
sg74
g3191
ssg77
Nsbag0
(g9
g2
Ntp3194
Rp3195
(dp3196
g13
I204
sg14
(lp3197
g0
(g16
g2
Ntp3198
Rp3199
(dp3200
g20
I0
sg21
g22
sg23
I30
sg24
I1
sg25
I300
sg26
g27
sbag0
(g16
g2
Ntp3201
Rp3202
(dp3203
g20
I1
sg21
g31
sg23
I1
sg24
I-1
sg25
I1
sg26
g32
sbag0
(g16
g2
Ntp3204
Rp3205
(dp3206
g20
I2
sg21
g36
sg23
I1
sg24
I-1
sg25
I1
sg26
g32
sbag0
(g16
g2
Ntp3207
Rp3208
(dp3209
g20
I3
sg21
g40
sg23
I1
sg24
I-1
sg25
I1
sg26
g32
sbag0
(g16
g2
Ntp3210
Rp3211
(dp3212
g20
I4
sg21
g44
sg23
I1
sg24
I-1
sg25
I1
sg26
g32
sbag0
(g16
g2
Ntp3213
Rp3214
(dp3215
g20
I5
sg21
g48
sg23
(lp3216
I0
aI25
asg24
I0
sg25
I100
sg26
g50
sbag0
(g16
g2
Ntp3217
Rp3218
(dp3219
g20
I6
sg21
g54
sg23
(lp3220
I25
aI50
aI75
asg24
I0
sg25
I100
sg26
g56
sbag0
(g16
g2
Ntp3221
Rp3222
(dp3223
g20
I7
sg21
g60
sg23
(lp3224
I75
aI100
asg24
I0
sg25
I100
sg26
g50
sbag0
(g16
g2
Ntp3225
Rp3226
(dp3227
g20
I8
sg21
g65
sg23
(lp3228
I50
aI50
asg24
I1
sg25
I100
sg26
g65
sbag0
(g16
g2
Ntp3229
Rp3230
(dp3231
g20
I9
sg21
g70
sg23
F0.95
sg24
F0.01
sg25
F0.99
sg26
g32
sbag0
(g16
g2
Ntp3232
Rp3233
(dp3234
g20
I10
sg21
g74
sg23
I30
sg24
I1
sg25
I300
sg26
g27
sbasg75
(dp3235
g22
g3199
sg31
g3202
sg36
g3205
sg40
g3208
sg44
g3211
sg48
g3214
sg54
g3218
sg60
g3222
sg65
g3226
sg70
g3230
sg74
g3233
ssg77
Nsbag0
(g9
g2
Ntp3236
Rp3237
(dp3238
g13
I205
sg14
(lp3239
g0
(g16
g2
Ntp3240
Rp3241
(dp3242
g20
I110
sg21
g22
sg23
I30
sg24
I1
sg25
I300
sg26
g27
sbag0
(g16
g2
Ntp3243
Rp3244
(dp3245
g20
I111
sg21
g31
sg23
F1.0
sg24
I-1
sg25
I1
sg26
g32
sbag0
(g16
g2
Ntp3246
Rp3247
(dp3248
g20
I112
sg21
g36
sg23
F1.0
sg24
I-1
sg25
I1
sg26
g32
sbag0
(g16
g2
Ntp3249
Rp3250
(dp3251
g20
I113
sg21
g40
sg23
F1.0
sg24
I-1
sg25
I1
sg26
g32
sbag0
(g16
g2
Ntp3252
Rp3253
(dp3254
g20
I114
sg21
g44
sg23
F1.0
sg24
I-1
sg25
I1
sg26
g32
sbag0
(g16
g2
Ntp3255
Rp3256
(dp3257
g20
I115
sg21
g48
sg23
(lp3258
F0.0
aF25.0
asg24
I0
sg25
I100
sg26
g50
sbag0
(g16
g2
Ntp3259
Rp3260
(dp3261
g20
I116
sg21
g54
sg23
(lp3262
F25.135617551530828
aF51.303199757242105
aF75.03545486243313
asg24
I0
sg25
I100
sg26
g56
sbag0
(g16
g2
Ntp3263
Rp3264
(dp3265
g20
I117
sg21
g60
sg23
(lp3266
F75.0
aF100.00000000000001
asg24
I0
sg25
I100
sg26
g50
sbag0
(g16
g2
Ntp3267
Rp3268
(dp3269
g20
I118
sg21
g65
sg23
(lp3270
I50
aI50
asg24
I1
sg25
I100
sg26
g65
sbag0
(g16
g2
Ntp3271
Rp3272
(dp3273
g20
I119
sg21
g70
sg23
F0.95
sg24
F0.01
sg25
F0.99
sg26
g32
sbag0
(g16
g2
Ntp3274
Rp3275
(dp3276
g20
I120
sg21
g74
sg23
I30
sg24
I1
sg25
I300
sg26
g27
sbasg75
(dp3277
g22
g3241
sg31
g3244
sg36
g3247
sg40
g3250
sg44
g3253
sg48
g3256
sg54
g3260
sg60
g3264
sg65
g3268
sg70
g3272
sg74
g3275
ssg77
Nsbag0
(g9
g2
Ntp3278
Rp3279
(dp3280
g13
I206
sg14
g3239
sg75
(dp3281
g22
g3241
sg31
g3244
sg36
g3247
sg40
g3250
sg44
g3253
sg48
g3256
sg54
g3260
sg60
g3264
sg65
g3268
sg70
g3272
sg74
g3275
ssg77
Nsbag0
(g9
g2
Ntp3282
Rp3283
(dp3284
g13
I207
sg14
(lp3285
g0
(g16
g2
Ntp3286
Rp3287
(dp3288
g20
I22
sg21
g22
sg23
I4
sg24
I1
sg25
I300
sg26
g27
sbag0
(g16
g2
Ntp3289
Rp3290
(dp3291
g20
I1
sg21
g31
sg23
I1
sg24
I-1
sg25
I1
sg26
g32
sbag0
(g16
g2
Ntp3292
Rp3293
(dp3294
g20
I2
sg21
g36
sg23
I1
sg24
I-1
sg25
I1
sg26
g32
sbag0
(g16
g2
Ntp3295
Rp3296
(dp3297
g20
I3
sg21
g40
sg23
F0.883607017718655
sg24
I-1
sg25
I1
sg26
g32
sbag0
(g16
g2
Ntp3298
Rp3299
(dp3300
g20
I4
sg21
g44
sg23
I1
sg24
I-1
sg25
I1
sg26
g32
sbag0
(g16
g2
Ntp3301
Rp3302
(dp3303
g20
I5
sg21
g48
sg23
(lp3304
I0
aI25
asg24
I0
sg25
I100
sg26
g50
sbag0
(g16
g2
Ntp3305
Rp3306
(dp3307
g20
I6
sg21
g54
sg23
(lp3308
I25
aI50
aI75
asg24
I0
sg25
I100
sg26
g56
sbag0
(g16
g2
Ntp3309
Rp3310
(dp3311
g20
I7
sg21
g60
sg23
(lp3312
I75
aI100
asg24
I0
sg25
I100
sg26
g50
sbag0
(g16
g2
Ntp3313
Rp3314
(dp3315
g20
I8
sg21
g65
sg23
(lp3316
I50
aI50
asg24
I1
sg25
I100
sg26
g65
sbag0
(g16
g2
Ntp3317
Rp3318
(dp3319
g20
I9
sg21
g70
sg23
F0.7898034467189555
sg24
F0.01
sg25
F0.99
sg26
g32
sbag0
(g16
g2
Ntp3320
Rp3321
(dp3322
g20
I10
sg21
g74
sg23
I162
sg24
I1
sg25
I300
sg26
g27
sbasg75
(dp3323
g22
g3287
sg31
g3290
sg36
g3293
sg40
g3296
sg44
g3299
sg48
g3302
sg54
g3306
sg60
g3310
sg65
g3314
sg70
g3318
sg74
g3321
ssg77
Nsbag0
(g9
g2
Ntp3324
Rp3325
(dp3326
g13
I208
sg14
(lp3327
g0
(g16
g2
Ntp3328
Rp3329
(dp3330
g20
I0
sg21
g22
sg23
I30
sg24
I1
sg25
I300
sg26
g27
sbag0
(g16
g2
Ntp3331
Rp3332
(dp3333
g20
I23
sg21
g31
sg23
F-0.8932218437616406
sg24
I-1
sg25
I1
sg26
g32
sbag0
(g16
g2
Ntp3334
Rp3335
(dp3336
g20
I24
sg21
g36
sg23
F1.0
sg24
I-1
sg25
I1
sg26
g32
sbag0
(g16
g2
Ntp3337
Rp3338
(dp3339
g20
I25
sg21
g40
sg23
F1.0
sg24
I-1
sg25
I1
sg26
g32
sbag0
(g16
g2
Ntp3340
Rp3341
(dp3342
g20
I26
sg21
g44
sg23
F1.0
sg24
I-1
sg25
I1
sg26
g32
sbag0
(g16
g2
Ntp3343
Rp3344
(dp3345
g20
I27
sg21
g48
sg23
(lp3346
F0.0
aF25.0
asg24
I0
sg25
I100
sg26
g50
sbag0
(g16
g2
Ntp3347
Rp3348
(dp3349
g20
I28
sg21
g54
sg23
(lp3350
F45.85278876302064
aF82.16641280586708
aF95.10961564003641
asg24
I0
sg25
I100
sg26
g56
sbag0
(g16
g2
Ntp3351
Rp3352
(dp3353
g20
I29
sg21
g60
sg23
(lp3354
F75.0
aF100.0
asg24
I0
sg25
I100
sg26
g50
sbag0
(g16
g2
Ntp3355
Rp3356
(dp3357
g20
I30
sg21
g65
sg23
(lp3358
I50
aI50
asg24
I1
sg25
I100
sg26
g65
sbag0
(g16
g2
Ntp3359
Rp3360
(dp3361
g20
I31
sg21
g70
sg23
F0.2220080931139968
sg24
F0.01
sg25
F0.99
sg26
g32
sbag0
(g16
g2
Ntp3362
Rp3363
(dp3364
g20
I32
sg21
g74
sg23
I30
sg24
I1
sg25
I300
sg26
g27
sbasg75
(dp3365
g22
g3329
sg31
g3332
sg36
g3335
sg40
g3338
sg44
g3341
sg48
g3344
sg54
g3348
sg60
g3352
sg65
g3356
sg70
g3360
sg74
g3363
ssg77
Nsbag0
(g9
g2
Ntp3366
Rp3367
(dp3368
g13
I209
sg14
(lp3369
g0
(g16
g2
Ntp3370
Rp3371
(dp3372
g20
I121
sg21
g22
sg23
I30
sg24
I1
sg25
I300
sg26
g27
sbag0
(g16
g2
Ntp3373
Rp3374
(dp3375
g20
I123
sg21
g31
sg23
F0.941281045800262
sg24
I-1
sg25
I1
sg26
g32
sbag0
(g16
g2
Ntp3376
Rp3377
(dp3378
g20
I125
sg21
g36
sg23
F0.9999999999999999
sg24
I-1
sg25
I1
sg26
g32
sbag0
(g16
g2
Ntp3379
Rp3380
(dp3381
g20
I127
sg21
g40
sg23
F0.9999999999999999
sg24
I-1
sg25
I1
sg26
g32
sbag0
(g16
g2
Ntp3382
Rp3383
(dp3384
g20
I129
sg21
g44
sg23
F0.9999999999999999
sg24
I-1
sg25
I1
sg26
g32
sbag0
(g16
g2
Ntp3385
Rp3386
(dp3387
g20
I131
sg21
g48
sg23
(lp3388
F0.6247474629392493
aF25.840348169227283
asg24
I0
sg25
I100
sg26
g50
sbag0
(g16
g2
Ntp3389
Rp3390
(dp3391
g20
I133
sg21
g54
sg23
(lp3392
F24.339893399980618
aF48.981754352695745
aF74.36341895759374
asg24
I0
sg25
I100
sg26
g56
sbag0
(g16
g2
Ntp3393
Rp3394
(dp3395
g20
I135
sg21
g60
sg23
(lp3396
F74.58304179286574
aF98.9072081374234
asg24
I0
sg25
I100
sg26
g50
sbag0
(g16
g2
Ntp3397
Rp3398
(dp3399
g20
I137
sg21
g65
sg23
(lp3400
I50
aI50
asg24
I1
sg25
I100
sg26
g65
sbag0
(g16
g2
Ntp3401
Rp3402
(dp3403
g20
I139
sg21
g70
sg23
F0.9490640211219753
sg24
F0.01
sg25
F0.99
sg26
g32
sbag0
(g16
g2
Ntp3404
Rp3405
(dp3406
g20
I141
sg21
g74
sg23
I30
sg24
I1
sg25
I300
sg26
g27
sbasg75
(dp3407
g22
g3371
sg31
g3374
sg36
g3377
sg40
g3380
sg44
g3383
sg48
g3386
sg54
g3390
sg60
g3394
sg65
g3398
sg70
g3402
sg74
g3405
ssg77
Nsbag0
(g9
g2
Ntp3408
Rp3409
(dp3410
g13
I210
sg14
(lp3411
g0
(g16
g2
Ntp3412
Rp3413
(dp3414
g20
I122
sg21
g22
sg23
I30
sg24
I1
sg25
I300
sg26
g27
sbag0
(g16
g2
Ntp3415
Rp3416
(dp3417
g20
I124
sg21
g31
sg23
F-0.8345028895619025
sg24
I-1
sg25
I1
sg26
g32
sbag0
(g16
g2
Ntp3418
Rp3419
(dp3420
g20
I126
sg21
g36
sg23
F0.9999999999999999
sg24
I-1
sg25
I1
sg26
g32
sbag0
(g16
g2
Ntp3421
Rp3422
(dp3423
g20
I128
sg21
g40
sg23
F0.9999999999999999
sg24
I-1
sg25
I1
sg26
g32
sbag0
(g16
g2
Ntp3424
Rp3425
(dp3426
g20
I130
sg21
g44
sg23
F0.9999999999999999
sg24
I-1
sg25
I1
sg26
g32
sbag0
(g16
g2
Ntp3427
Rp3428
(dp3429
g20
I132
sg21
g48
sg23
(lp3430
F0.0
aI25
asg24
I0
sg25
I100
sg26
g50
sbag0
(g16
g2
Ntp3431
Rp3432
(dp3433
g20
I134
sg21
g54
sg23
(lp3434
F46.51289536304002
aF83.18465845317134
aF95.74619668244267
asg24
I0
sg25
I100
sg26
g56
sbag0
(g16
g2
Ntp3435
Rp3436
(dp3437
g20
I136
sg21
g60
sg23
(lp3438
F74.99017616265024
aF99.97425303224301
asg24
I0
sg25
I100
sg26
g50
sbag0
(g16
g2
Ntp3439
Rp3440
(dp3441
g20
I138
sg21
g65
sg23
(lp3442
I50
aI50
asg24
I1
sg25
I100
sg26
g65
sbag0
(g16
g2
Ntp3443
Rp3444
(dp3445
g20
I140
sg21
g70
sg23
F0.22294407199202135
sg24
F0.01
sg25
F0.99
sg26
g32
sbag0
(g16
g2
Ntp3446
Rp3447
(dp3448
g20
I142
sg21
g74
sg23
I31
sg24
I1
sg25
I300
sg26
g27
sbasg75
(dp3449
g22
g3413
sg31
g3416
sg36
g3419
sg40
g3422
sg44
g3425
sg48
g3428
sg54
g3432
sg60
g3436
sg65
g3440
sg70
g3444
sg74
g3447
ssg77
Nsbag0
(g9
g2
Ntp3450
Rp3451
(dp3452
g13
I211
sg14
(lp3453
g0
(g16
g2
Ntp3454
Rp3455
(dp3456
g20
I143
sg21
g22
sg23
I26
sg24
I1
sg25
I300
sg26
g27
sbag0
(g16
g2
Ntp3457
Rp3458
(dp3459
g20
I145
sg21
g31
sg23
F-0.6215733044248558
sg24
I-1
sg25
I1
sg26
g32
sbag0
(g16
g2
Ntp3460
Rp3461
(dp3462
g20
I147
sg21
g36
sg23
F0.9696974451649972
sg24
I-1
sg25
I1
sg26
g32
sbag0
(g16
g2
Ntp3463
Rp3464
(dp3465
g20
I149
sg21
g40
sg23
F0.9529043099388077
sg24
I-1
sg25
I1
sg26
g32
sbag0
(g16
g2
Ntp3466
Rp3467
(dp3468
g20
I151
sg21
g44
sg23
F-0.06699608041450622
sg24
I-1
sg25
I1
sg26
g32
sbag0
(g16
g2
Ntp3469
Rp3470
(dp3471
g20
I153
sg21
g48
sg23
(lp3472
F8.063276855457195
aF32.122786550492236
asg24
I0
sg25
I100
sg26
g50
sbag0
(g16
g2
Ntp3473
Rp3474
(dp3475
g20
I155
sg21
g54
sg23
(lp3476
F44.02439242470453
aF77.56614976137446
aF93.10024675497455
asg24
I0
sg25
I100
sg26
g56
sbag0
(g16
g2
Ntp3477
Rp3478
(dp3479
g20
I157
sg21
g60
sg23
(lp3480
F72.88055035730805
aF99.51855391500246
asg24
I0
sg25
I100
sg26
g50
sbag0
(g16
g2
Ntp3481
Rp3482
(dp3483
g20
I159
sg21
g65
sg23
(lp3484
F44.73842163083419
aF47.67388959316529
asg24
I1
sg25
I100
sg26
g65
sbag0
(g16
g2
Ntp3485
Rp3486
(dp3487
g20
I161
sg21
g70
sg23
F0.8349083882659424
sg24
F0.01
sg25
F0.99
sg26
g32
sbag0
(g16
g2
Ntp3488
Rp3489
(dp3490
g20
I163
sg21
g74
sg23
I22
sg24
I1
sg25
I300
sg26
g27
sbasg75
(dp3491
g22
g3455
sg31
g3458
sg36
g3461
sg40
g3464
sg44
g3467
sg48
g3470
sg54
g3474
sg60
g3478
sg65
g3482
sg70
g3486
sg74
g3489
ssg77
Nsbag0
(g9
g2
Ntp3492
Rp3493
(dp3494
g13
I212
sg14
(lp3495
g0
(g16
g2
Ntp3496
Rp3497
(dp3498
g20
I144
sg21
g22
sg23
I189
sg24
I1
sg25
I300
sg26
g27
sbag0
(g16
g2
Ntp3499
Rp3500
(dp3501
g20
I146
sg21
g31
sg23
F0.46397407826827275
sg24
I-1
sg25
I1
sg26
g32
sbag0
(g16
g2
Ntp3502
Rp3503
(dp3504
g20
I148
sg21
g36
sg23
F-0.1646964138087752
sg24
I-1
sg25
I1
sg26
g32
sbag0
(g16
g2
Ntp3505
Rp3506
(dp3507
g20
I150
sg21
g40
sg23
F0.7024644274622643
sg24
I-1
sg25
I1
sg26
g32
sbag0
(g16
g2
Ntp3508
Rp3509
(dp3510
g20
I152
sg21
g44
sg23
F-0.7208973517109771
sg24
I-1
sg25
I1
sg26
g32
sbag0
(g16
g2
Ntp3511
Rp3512
(dp3513
g20
I154
sg21
g48
sg23
(lp3514
F71.73051074064158
aF88.36395566246638
asg24
I0
sg25
I100
sg26
g50
sbag0
(g16
g2
Ntp3515
Rp3516
(dp3517
g20
I156
sg21
g54
sg23
(lp3518
F27.12774237527185
aF35.054013213499424
aF74.53118590114622
asg24
I0
sg25
I100
sg26
g56
sbag0
(g16
g2
Ntp3519
Rp3520
(dp3521
g20
I158
sg21
g60
sg23
(lp3522
F29.893013687866393
aF89.75366928820652
asg24
I0
sg25
I100
sg26
g50
sbag0
(g16
g2
Ntp3523
Rp3524
(dp3525
g20
I160
sg21
g65
sg23
(lp3526
F12.804160182073822
aF33.55595526268818
asg24
I1
sg25
I100
sg26
g65
sbag0
(g16
g2
Ntp3527
Rp3528
(dp3529
g20
I162
sg21
g70
sg23
F0.5165952769415756
sg24
F0.01
sg25
F0.99
sg26
g32
sbag0
(g16
g2
Ntp3530
Rp3531
(dp3532
g20
I164
sg21
g74
sg23
I149
sg24
I1
sg25
I300
sg26
g27
sbasg75
(dp3533
g22
g3497
sg31
g3500
sg36
g3503
sg40
g3506
sg44
g3509
sg48
g3512
sg54
g3516
sg60
g3520
sg65
g3524
sg70
g3528
sg74
g3531
ssg77
Nsbag0
(g9
g2
Ntp3534
Rp3535
(dp3536
g13
I213
sg14
(lp3537
g0
(g16
g2
Ntp3538
Rp3539
(dp3540
g20
I165
sg21
g22
sg23
I56
sg24
I1
sg25
I300
sg26
g27
sbag0
(g16
g2
Ntp3541
Rp3542
(dp3543
g20
I166
sg21
g31
sg23
F0.936055402968464
sg24
I-1
sg25
I1
sg26
g32
sbag0
(g16
g2
Ntp3544
Rp3545
(dp3546
g20
I167
sg21
g36
sg23
F0.7703295010160119
sg24
I-1
sg25
I1
sg26
g32
sbag0
(g16
g2
Ntp3547
Rp3548
(dp3549
g20
I168
sg21
g40
sg23
F0.7839141634642364
sg24
I-1
sg25
I1
sg26
g32
sbag0
(g16
g2
Ntp3550
Rp3551
(dp3552
g20
I169
sg21
g44
sg23
F0.44286835268499153
sg24
I-1
sg25
I1
sg26
g32
sbag0
(g16
g2
Ntp3553
Rp3554
(dp3555
g20
I170
sg21
g48
sg23
(lp3556
F4.132615547599568
aF28.650592552936512
asg24
I0
sg25
I100
sg26
g50
sbag0
(g16
g2
Ntp3557
Rp3558
(dp3559
g20
I171
sg21
g54
sg23
(lp3560
F9.08892007432465
aF24.879465763100423
aF47.57365889634598
asg24
I0
sg25
I100
sg26
g56
sbag0
(g16
g2
Ntp3561
Rp3562
(dp3563
g20
I172
sg21
g60
sg23
(lp3564
F67.24733291813085
aF98.23893375918358
asg24
I0
sg25
I100
sg26
g50
sbag0
(g16
g2
Ntp3565
Rp3566
(dp3567
g20
I173
sg21
g65
sg23
(lp3568
F38.623682739531425
aF44.97060233368249
asg24
I1
sg25
I100
sg26
g65
sbag0
(g16
g2
Ntp3569
Rp3570
(dp3571
g20
I174
sg21
g70
sg23
F0.5838729673113553
sg24
F0.01
sg25
F0.99
sg26
g32
sbag0
(g16
g2
Ntp3572
Rp3573
(dp3574
g20
I175
sg21
g74
sg23
I74
sg24
I1
sg25
I300
sg26
g27
sbasg75
(dp3575
g22
g3539
sg31
g3542
sg36
g3545
sg40
g3548
sg44
g3551
sg48
g3554
sg54
g3558
sg60
g3562
sg65
g3566
sg70
g3570
sg74
g3573
ssg77
Nsbag0
(g9
g2
Ntp3576
Rp3577
(dp3578
g13
I214
sg14
g3537
sg75
(dp3579
g22
g3539
sg31
g3542
sg36
g3545
sg40
g3548
sg44
g3551
sg48
g3554
sg54
g3558
sg60
g3562
sg65
g3566
sg70
g3570
sg74
g3573
ssg77
Nsbag0
(g9
g2
Ntp3580
Rp3581
(dp3582
g13
I215
sg14
(lp3583
g0
(g16
g2
Ntp3584
Rp3585
(dp3586
g20
I176
sg21
g22
sg23
I30
sg24
I1
sg25
I300
sg26
g27
sbag0
(g16
g2
Ntp3587
Rp3588
(dp3589
g20
I178
sg21
g31
sg23
F0.9999999999999999
sg24
I-1
sg25
I1
sg26
g32
sbag0
(g16
g2
Ntp3590
Rp3591
(dp3592
g20
I180
sg21
g36
sg23
F0.9999999999999999
sg24
I-1
sg25
I1
sg26
g32
sbag0
(g16
g2
Ntp3593
Rp3594
(dp3595
g20
I182
sg21
g40
sg23
F0.9999999999999999
sg24
I-1
sg25
I1
sg26
g32
sbag0
(g16
g2
Ntp3596
Rp3597
(dp3598
g20
I184
sg21
g44
sg23
F0.9999999999999999
sg24
I-1
sg25
I1
sg26
g32
sbag0
(g16
g2
Ntp3599
Rp3600
(dp3601
g20
I186
sg21
g48
sg23
(lp3602
I0
aI25
asg24
I0
sg25
I100
sg26
g50
sbag0
(g16
g2
Ntp3603
Rp3604
(dp3605
g20
I188
sg21
g54
sg23
(lp3606
F24.999999999999996
aF49.99999999999999
aF75.0
asg24
I0
sg25
I100
sg26
g56
sbag0
(g16
g2
Ntp3607
Rp3608
(dp3609
g20
I190
sg21
g60
sg23
(lp3610
F75.0
aF99.99999999999999
asg24
I0
sg25
I100
sg26
g50
sbag0
(g16
g2
Ntp3611
Rp3612
(dp3613
g20
I192
sg21
g65
sg23
(lp3614
I50
aI50
asg24
I1
sg25
I100
sg26
g65
sbag0
(g16
g2
Ntp3615
Rp3616
(dp3617
g20
I194
sg21
g70
sg23
F0.9499999999999998
sg24
F0.01
sg25
F0.99
sg26
g32
sbag0
(g16
g2
Ntp3618
Rp3619
(dp3620
g20
I196
sg21
g74
sg23
I30
sg24
I1
sg25
I300
sg26
g27
sbasg75
(dp3621
g22
g3585
sg31
g3588
sg36
g3591
sg40
g3594
sg44
g3597
sg48
g3600
sg54
g3604
sg60
g3608
sg65
g3612
sg70
g3616
sg74
g3619
ssg77
Nsbag0
(g9
g2
Ntp3622
Rp3623
(dp3624
g13
I216
sg14
(lp3625
g0
(g16
g2
Ntp3626
Rp3627
(dp3628
g20
I177
sg21
g22
sg23
I30
sg24
I1
sg25
I300
sg26
g27
sbag0
(g16
g2
Ntp3629
Rp3630
(dp3631
g20
I179
sg21
g31
sg23
F0.9999999999999999
sg24
I-1
sg25
I1
sg26
g32
sbag0
(g16
g2
Ntp3632
Rp3633
(dp3634
g20
I181
sg21
g36
sg23
F0.9999999999999999
sg24
I-1
sg25
I1
sg26
g32
sbag0
(g16
g2
Ntp3635
Rp3636
(dp3637
g20
I183
sg21
g40
sg23
F0.9999999999999999
sg24
I-1
sg25
I1
sg26
g32
sbag0
(g16
g2
Ntp3638
Rp3639
(dp3640
g20
I185
sg21
g44
sg23
F0.9999999999999999
sg24
I-1
sg25
I1
sg26
g32
sbag0
(g16
g2
Ntp3641
Rp3642
(dp3643
g20
I187
sg21
g48
sg23
(lp3644
I0
aI25
asg24
I0
sg25
I100
sg26
g50
sbag0
(g16
g2
Ntp3645
Rp3646
(dp3647
g20
I189
sg21
g54
sg23
(lp3648
F24.999999999999996
aF49.99999999999999
aF75.0
asg24
I0
sg25
I100
sg26
g56
sbag0
(g16
g2
Ntp3649
Rp3650
(dp3651
g20
I191
sg21
g60
sg23
(lp3652
F75.0
aF99.99999999999999
asg24
I0
sg25
I100
sg26
g50
sbag0
(g16
g2
Ntp3653
Rp3654
(dp3655
g20
I193
sg21
g65
sg23
(lp3656
I50
aI50
asg24
I1
sg25
I100
sg26
g65
sbag0
(g16
g2
Ntp3657
Rp3658
(dp3659
g20
I195
sg21
g70
sg23
F0.9499999999999998
sg24
F0.01
sg25
F0.99
sg26
g32
sbag0
(g16
g2
Ntp3660
Rp3661
(dp3662
g20
I197
sg21
g74
sg23
I30
sg24
I1
sg25
I300
sg26
g27
sbasg75
(dp3663
g22
g3627
sg31
g3630
sg36
g3633
sg40
g3636
sg44
g3639
sg48
g3642
sg54
g3646
sg60
g3650
sg65
g3654
sg70
g3658
sg74
g3661
ssg77
Nsbag0
(g9
g2
Ntp3664
Rp3665
(dp3666
g13
I217
sg14
(lp3667
g0
(g16
g2
Ntp3668
Rp3669
(dp3670
g20
I33
sg21
g22
sg23
I48
sg24
I1
sg25
I300
sg26
g27
sbag0
(g16
g2
Ntp3671
Rp3672
(dp3673
g20
I35
sg21
g31
sg23
F-0.6247554808556484
sg24
I-1
sg25
I1
sg26
g32
sbag0
(g16
g2
Ntp3674
Rp3675
(dp3676
g20
I13
sg21
g36
sg23
F-0.19499896864377808
sg24
I-1
sg25
I1
sg26
g32
sbag0
(g16
g2
Ntp3677
Rp3678
(dp3679
g20
I39
sg21
g40
sg23
F0.9431995954474146
sg24
I-1
sg25
I1
sg26
g32
sbag0
(g16
g2
Ntp3680
Rp3681
(dp3682
g20
I15
sg21
g44
sg23
F-0.995623049918074
sg24
I-1
sg25
I1
sg26
g32
sbag0
(g16
g2
Ntp3683
Rp3684
(dp3685
g20
I16
sg21
g48
sg23
(lp3686
F79.79378759609878
aF95.48674221295862
asg24
I0
sg25
I100
sg26
g50
sbag0
(g16
g2
Ntp3687
Rp3688
(dp3689
g20
I17
sg21
g54
sg23
(lp3690
F25.299346036955733
aF30.4537501690068
aF72.52181701608436
asg24
I0
sg25
I100
sg26
g56
sbag0
(g16
g2
Ntp3691
Rp3692
(dp3693
g20
I18
sg21
g60
sg23
(lp3694
F27.77356404517445
aF89.272223203209
asg24
I0
sg25
I100
sg26
g50
sbag0
(g16
g2
Ntp3695
Rp3696
(dp3697
g20
I19
sg21
g65
sg23
(lp3698
F7.542581812908014
aF31.229844855853475
asg24
I1
sg25
I100
sg26
g65
sbag0
(g16
g2
Ntp3699
Rp3700
(dp3701
g20
I20
sg21
g70
sg23
F0.40150366520751796
sg24
F0.01
sg25
F0.99
sg26
g32
sbag0
(g16
g2
Ntp3702
Rp3703
(dp3704
g20
I53
sg21
g74
sg23
I7
sg24
I1
sg25
I300
sg26
g27
sbasg75
(dp3705
g22
g3669
sg31
g3672
sg36
g3675
sg40
g3678
sg44
g3681
sg48
g3684
sg54
g3688
sg60
g3692
sg65
g3696
sg70
g3700
sg74
g3703
ssg77
Nsbag0
(g9
g2
Ntp3706
Rp3707
(dp3708
g13
I218
sg14
(lp3709
g0
(g16
g2
Ntp3710
Rp3711
(dp3712
g20
I11
sg21
g22
sg23
I212
sg24
I1
sg25
I300
sg26
g27
sbag0
(g16
g2
Ntp3713
Rp3714
(dp3715
g20
I12
sg21
g31
sg23
F0.7356226176050575
sg24
I-1
sg25
I1
sg26
g32
sbag0
(g16
g2
Ntp3716
Rp3717
(dp3718
g20
I2
sg21
g36
sg23
I1
sg24
I-1
sg25
I1
sg26
g32
sbag0
(g16
g2
Ntp3719
Rp3720
(dp3721
g20
I14
sg21
g40
sg23
F0.07946124987729908
sg24
I-1
sg25
I1
sg26
g32
sbag0
(g16
g2
Ntp3722
Rp3723
(dp3724
g20
I41
sg21
g44
sg23
F0.6753816819898019
sg24
I-1
sg25
I1
sg26
g32
sbag0
(g16
g2
Ntp3725
Rp3726
(dp3727
g20
I43
sg21
g48
sg23
(lp3728
F2.0897145542941282
aF26.845972920007114
asg24
I0
sg25
I100
sg26
g50
sbag0
(g16
g2
Ntp3729
Rp3730
(dp3731
g20
I45
sg21
g54
sg23
(lp3732
F24.95314070262912
aF53.0597483188041
aF75.38793202196267
asg24
I0
sg25
I100
sg26
g56
sbag0
(g16
g2
Ntp3733
Rp3734
(dp3735
g20
I47
sg21
g60
sg23
(lp3736
F74.56440652860127
aF99.90105225090932
asg24
I0
sg25
I100
sg26
g50
sbag0
(g16
g2
Ntp3737
Rp3738
(dp3739
g20
I49
sg21
g65
sg23
(lp3740
F47.018731081055044
aF48.68199993017871
asg24
I1
sg25
I100
sg26
g65
sbag0
(g16
g2
Ntp3741
Rp3742
(dp3743
g20
I51
sg21
g70
sg23
F0.9304820037053343
sg24
F0.01
sg25
F0.99
sg26
g32
sbag0
(g16
g2
Ntp3744
Rp3745
(dp3746
g20
I21
sg21
g74
sg23
I142
sg24
I1
sg25
I300
sg26
g27
sbasg75
(dp3747
g22
g3711
sg31
g3714
sg36
g3717
sg40
g3720
sg44
g3723
sg48
g3726
sg54
g3730
sg60
g3734
sg65
g3738
sg70
g3742
sg74
g3745
ssg77
Nsbag0
(g9
g2
Ntp3748
Rp3749
(dp3750
g13
I219
sg14
(lp3751
g0
(g16
g2
Ntp3752
Rp3753
(dp3754
g20
I11
sg21
g22
sg23
I212
sg24
I1
sg25
I300
sg26
g27
sbag0
(g16
g2
Ntp3755
Rp3756
(dp3757
g20
I12
sg21
g31
sg23
F0.7356226176050575
sg24
I-1
sg25
I1
sg26
g32
sbag0
(g16
g2
Ntp3758
Rp3759
(dp3760
g20
I13
sg21
g36
sg23
F-0.19499896864377808
sg24
I-1
sg25
I1
sg26
g32
sbag0
(g16
g2
Ntp3761
Rp3762
(dp3763
g20
I14
sg21
g40
sg23
F0.6553687374010722
sg24
I-1
sg25
I1
sg26
g32
sbag0
(g16
g2
Ntp3764
Rp3765
(dp3766
g20
I15
sg21
g44
sg23
F-0.995623049918074
sg24
I-1
sg25
I1
sg26
g32
sbag0
(g16
g2
Ntp3767
Rp3768
(dp3769
g20
I16
sg21
g48
sg23
(lp3770
F79.79378759609878
aF95.48674221295862
asg24
I0
sg25
I100
sg26
g50
sbag0
(g16
g2
Ntp3771
Rp3772
(dp3773
g20
I17
sg21
g54
sg23
(lp3774
F25.299346036955733
aF30.4537501690068
aF72.52181701608436
asg24
I0
sg25
I100
sg26
g56
sbag0
(g16
g2
Ntp3775
Rp3776
(dp3777
g20
I18
sg21
g60
sg23
(lp3778
F27.77356404517445
aF89.272223203209
asg24
I0
sg25
I100
sg26
g50
sbag0
(g16
g2
Ntp3779
Rp3780
(dp3781
g20
I19
sg21
g65
sg23
(lp3782
F7.542581812908014
aF31.229844855853475
asg24
I1
sg25
I100
sg26
g65
sbag0
(g16
g2
Ntp3783
Rp3784
(dp3785
g20
I20
sg21
g70
sg23
F0.40150366520751796
sg24
F0.01
sg25
F0.99
sg26
g32
sbag0
(g16
g2
Ntp3786
Rp3787
(dp3788
g20
I21
sg21
g74
sg23
I142
sg24
I1
sg25
I300
sg26
g27
sbasg75
(dp3789
g22
g3753
sg31
g3756
sg36
g3759
sg40
g3762
sg44
g3765
sg48
g3768
sg54
g3772
sg60
g3776
sg65
g3780
sg70
g3784
sg74
g3787
ssg77
Nsbag0
(g9
g2
Ntp3790
Rp3791
(dp3792
g13
I220
sg14
(lp3793
g0
(g16
g2
Ntp3794
Rp3795
(dp3796
g20
I176
sg21
g22
sg23
I30
sg24
I1
sg25
I300
sg26
g27
sbag0
(g16
g2
Ntp3797
Rp3798
(dp3799
g20
I178
sg21
g31
sg23
F0.9999999999999999
sg24
I-1
sg25
I1
sg26
g32
sbag0
(g16
g2
Ntp3800
Rp3801
(dp3802
g20
I180
sg21
g36
sg23
F0.9999999999999999
sg24
I-1
sg25
I1
sg26
g32
sbag0
(g16
g2
Ntp3803
Rp3804
(dp3805
g20
I182
sg21
g40
sg23
F0.9999999999999999
sg24
I-1
sg25
I1
sg26
g32
sbag0
(g16
g2
Ntp3806
Rp3807
(dp3808
g20
I184
sg21
g44
sg23
F0.9999999999999999
sg24
I-1
sg25
I1
sg26
g32
sbag0
(g16
g2
Ntp3809
Rp3810
(dp3811
g20
I186
sg21
g48
sg23
(lp3812
I0
aI25
asg24
I0
sg25
I100
sg26
g50
sbag0
(g16
g2
Ntp3813
Rp3814
(dp3815
g20
I188
sg21
g54
sg23
(lp3816
F24.999999999999996
aF49.99999999999999
aF75.0
asg24
I0
sg25
I100
sg26
g56
sbag0
(g16
g2
Ntp3817
Rp3818
(dp3819
g20
I190
sg21
g60
sg23
(lp3820
F75.0
aF99.99999999999999
asg24
I0
sg25
I100
sg26
g50
sbag0
(g16
g2
Ntp3821
Rp3822
(dp3823
g20
I192
sg21
g65
sg23
(lp3824
I50
aI50
asg24
I1
sg25
I100
sg26
g65
sbag0
(g16
g2
Ntp3825
Rp3826
(dp3827
g20
I194
sg21
g70
sg23
F0.9499999999999998
sg24
F0.01
sg25
F0.99
sg26
g32
sbag0
(g16
g2
Ntp3828
Rp3829
(dp3830
g20
I196
sg21
g74
sg23
I30
sg24
I1
sg25
I300
sg26
g27
sbasg75
(dp3831
g22
g3795
sg31
g3798
sg36
g3801
sg40
g3804
sg44
g3807
sg48
g3810
sg54
g3814
sg60
g3818
sg65
g3822
sg70
g3826
sg74
g3829
ssg77
Nsbag0
(g9
g2
Ntp3832
Rp3833
(dp3834
g13
I221
sg14
(lp3835
g0
(g16
g2
Ntp3836
Rp3837
(dp3838
g20
I11
sg21
g22
sg23
I212
sg24
I1
sg25
I300
sg26
g27
sbag0
(g16
g2
Ntp3839
Rp3840
(dp3841
g20
I12
sg21
g31
sg23
F0.7356226176050575
sg24
I-1
sg25
I1
sg26
g32
sbag0
(g16
g2
Ntp3842
Rp3843
(dp3844
g20
I13
sg21
g36
sg23
F-0.19499896864377808
sg24
I-1
sg25
I1
sg26
g32
sbag0
(g16
g2
Ntp3845
Rp3846
(dp3847
g20
I14
sg21
g40
sg23
F0.6553687374010722
sg24
I-1
sg25
I1
sg26
g32
sbag0
(g16
g2
Ntp3848
Rp3849
(dp3850
g20
I4
sg21
g44
sg23
I1
sg24
I-1
sg25
I1
sg26
g32
sbag0
(g16
g2
Ntp3851
Rp3852
(dp3853
g20
I5
sg21
g48
sg23
(lp3854
I0
aI25
asg24
I0
sg25
I100
sg26
g50
sbag0
(g16
g2
Ntp3855
Rp3856
(dp3857
g20
I6
sg21
g54
sg23
(lp3858
I25
aI50
aI75
asg24
I0
sg25
I100
sg26
g56
sbag0
(g16
g2
Ntp3859
Rp3860
(dp3861
g20
I7
sg21
g60
sg23
(lp3862
I75
aI100
asg24
I0
sg25
I100
sg26
g50
sbag0
(g16
g2
Ntp3863
Rp3864
(dp3865
g20
I8
sg21
g65
sg23
(lp3866
I50
aI50
asg24
I1
sg25
I100
sg26
g65
sbag0
(g16
g2
Ntp3867
Rp3868
(dp3869
g20
I9
sg21
g70
sg23
F0.95
sg24
F0.01
sg25
F0.99
sg26
g32
sbag0
(g16
g2
Ntp3870
Rp3871
(dp3872
g20
I10
sg21
g74
sg23
I30
sg24
I1
sg25
I300
sg26
g27
sbasg75
(dp3873
g22
g3837
sg31
g3840
sg36
g3843
sg40
g3846
sg44
g3849
sg48
g3852
sg54
g3856
sg60
g3860
sg65
g3864
sg70
g3868
sg74
g3871
ssg77
Nsbag0
(g9
g2
Ntp3874
Rp3875
(dp3876
g13
I222
sg14
(lp3877
g0
(g16
g2
Ntp3878
Rp3879
(dp3880
g20
I11
sg21
g22
sg23
I212
sg24
I1
sg25
I300
sg26
g27
sbag0
(g16
g2
Ntp3881
Rp3882
(dp3883
g20
I12
sg21
g31
sg23
F0.7356226176050575
sg24
I-1
sg25
I1
sg26
g32
sbag0
(g16
g2
Ntp3884
Rp3885
(dp3886
g20
I2
sg21
g36
sg23
I1
sg24
I-1
sg25
I1
sg26
g32
sbag0
(g16
g2
Ntp3887
Rp3888
(dp3889
g20
I3
sg21
g40
sg23
I1
sg24
I-1
sg25
I1
sg26
g32
sbag0
(g16
g2
Ntp3890
Rp3891
(dp3892
g20
I15
sg21
g44
sg23
F-0.995623049918074
sg24
I-1
sg25
I1
sg26
g32
sbag0
(g16
g2
Ntp3893
Rp3894
(dp3895
g20
I16
sg21
g48
sg23
(lp3896
F79.79378759609878
aF95.48674221295862
asg24
I0
sg25
I100
sg26
g50
sbag0
(g16
g2
Ntp3897
Rp3898
(dp3899
g20
I17
sg21
g54
sg23
(lp3900
F25.299346036955733
aF30.4537501690068
aF72.52181701608436
asg24
I0
sg25
I100
sg26
g56
sbag0
(g16
g2
Ntp3901
Rp3902
(dp3903
g20
I18
sg21
g60
sg23
(lp3904
F27.77356404517445
aF89.272223203209
asg24
I0
sg25
I100
sg26
g50
sbag0
(g16
g2
Ntp3905
Rp3906
(dp3907
g20
I19
sg21
g65
sg23
(lp3908
F7.542581812908014
aF31.229844855853475
asg24
I1
sg25
I100
sg26
g65
sbag0
(g16
g2
Ntp3909
Rp3910
(dp3911
g20
I20
sg21
g70
sg23
F0.40150366520751796
sg24
F0.01
sg25
F0.99
sg26
g32
sbag0
(g16
g2
Ntp3912
Rp3913
(dp3914
g20
I21
sg21
g74
sg23
I295
sg24
I1
sg25
I300
sg26
g27
sbasg75
(dp3915
g22
g3879
sg31
g3882
sg36
g3885
sg40
g3888
sg44
g3891
sg48
g3894
sg54
g3898
sg60
g3902
sg65
g3906
sg70
g3910
sg74
g3913
ssg77
Nsbag0
(g9
g2
Ntp3916
Rp3917
(dp3918
g13
I223
sg14
(lp3919
g0
(g16
g2
Ntp3920
Rp3921
(dp3922
g20
I0
sg21
g22
sg23
I30
sg24
I1
sg25
I300
sg26
g27
sbag0
(g16
g2
Ntp3923
Rp3924
(dp3925
g20
I1
sg21
g31
sg23
I1
sg24
I-1
sg25
I1
sg26
g32
sbag0
(g16
g2
Ntp3926
Rp3927
(dp3928
g20
I2
sg21
g36
sg23
I1
sg24
I-1
sg25
I1
sg26
g32
sbag0
(g16
g2
Ntp3929
Rp3930
(dp3931
g20
I3
sg21
g40
sg23
I1
sg24
I-1
sg25
I1
sg26
g32
sbag0
(g16
g2
Ntp3932
Rp3933
(dp3934
g20
I4
sg21
g44
sg23
I1
sg24
I-1
sg25
I1
sg26
g32
sbag0
(g16
g2
Ntp3935
Rp3936
(dp3937
g20
I5
sg21
g48
sg23
(lp3938
I0
aI25
asg24
I0
sg25
I100
sg26
g50
sbag0
(g16
g2
Ntp3939
Rp3940
(dp3941
g20
I6
sg21
g54
sg23
(lp3942
I25
aI50
aI75
asg24
I0
sg25
I100
sg26
g56
sbag0
(g16
g2
Ntp3943
Rp3944
(dp3945
g20
I7
sg21
g60
sg23
(lp3946
I75
aI100
asg24
I0
sg25
I100
sg26
g50
sbag0
(g16
g2
Ntp3947
Rp3948
(dp3949
g20
I8
sg21
g65
sg23
(lp3950
I50
aI50
asg24
I1
sg25
I100
sg26
g65
sbag0
(g16
g2
Ntp3951
Rp3952
(dp3953
g20
I20
sg21
g70
sg23
F0.40150366520751796
sg24
F0.01
sg25
F0.99
sg26
g32
sbag0
(g16
g2
Ntp3954
Rp3955
(dp3956
g20
I21
sg21
g74
sg23
I142
sg24
I1
sg25
I300
sg26
g27
sbasg75
(dp3957
g22
g3921
sg31
g3924
sg36
g3927
sg40
g3930
sg44
g3933
sg48
g3936
sg54
g3940
sg60
g3944
sg65
g3948
sg70
g3952
sg74
g3955
ssg77
Nsbag0
(g9
g2
Ntp3958
Rp3959
(dp3960
g13
I224
sg14
(lp3961
g0
(g16
g2
Ntp3962
Rp3963
(dp3964
g20
I11
sg21
g22
sg23
I212
sg24
I1
sg25
I300
sg26
g27
sbag0
(g16
g2
Ntp3965
Rp3966
(dp3967
g20
I12
sg21
g31
sg23
F0.7356226176050575
sg24
I-1
sg25
I1
sg26
g32
sbag0
(g16
g2
Ntp3968
Rp3969
(dp3970
g20
I13
sg21
g36
sg23
F-0.19499896864377808
sg24
I-1
sg25
I1
sg26
g32
sbag0
(g16
g2
Ntp3971
Rp3972
(dp3973
g20
I14
sg21
g40
sg23
F0.6553687374010722
sg24
I-1
sg25
I1
sg26
g32
sbag0
(g16
g2
Ntp3974
Rp3975
(dp3976
g20
I15
sg21
g44
sg23
F-0.995623049918074
sg24
I-1
sg25
I1
sg26
g32
sbag0
(g16
g2
Ntp3977
Rp3978
(dp3979
g20
I16
sg21
g48
sg23
(lp3980
F79.79378759609878
aF95.48674221295862
asg24
I0
sg25
I100
sg26
g50
sbag0
(g16
g2
Ntp3981
Rp3982
(dp3983
g20
I17
sg21
g54
sg23
(lp3984
F25.299346036955733
aF30.4537501690068
aF72.52181701608436
asg24
I0
sg25
I100
sg26
g56
sbag0
(g16
g2
Ntp3985
Rp3986
(dp3987
g20
I18
sg21
g60
sg23
(lp3988
F27.77356404517445
aF89.272223203209
asg24
I0
sg25
I100
sg26
g50
sbag0
(g16
g2
Ntp3989
Rp3990
(dp3991
g20
I19
sg21
g65
sg23
(lp3992
F7.542581812908014
aF31.229844855853475
asg24
I1
sg25
I100
sg26
g65
sbag0
(g16
g2
Ntp3993
Rp3994
(dp3995
g20
I9
sg21
g70
sg23
F0.95
sg24
F0.01
sg25
F0.99
sg26
g32
sbag0
(g16
g2
Ntp3996
Rp3997
(dp3998
g20
I10
sg21
g74
sg23
I30
sg24
I1
sg25
I300
sg26
g27
sbasg75
(dp3999
g22
g3963
sg31
g3966
sg36
g3969
sg40
g3972
sg44
g3975
sg48
g3978
sg54
g3982
sg60
g3986
sg65
g3990
sg70
g3994
sg74
g3997
ssg77
Nsbag0
(g9
g2
Ntp4000
Rp4001
(dp4002
g13
I225
sg14
(lp4003
g0
(g16
g2
Ntp4004
Rp4005
(dp4006
g20
I0
sg21
g22
sg23
I30
sg24
I1
sg25
I300
sg26
g27
sbag0
(g16
g2
Ntp4007
Rp4008
(dp4009
g20
I1
sg21
g31
sg23
I1
sg24
I-1
sg25
I1
sg26
g32
sbag0
(g16
g2
Ntp4010
Rp4011
(dp4012
g20
I2
sg21
g36
sg23
I1
sg24
I-1
sg25
I1
sg26
g32
sbag0
(g16
g2
Ntp4013
Rp4014
(dp4015
g20
I3
sg21
g40
sg23
I1
sg24
I-1
sg25
I1
sg26
g32
sbag0
(g16
g2
Ntp4016
Rp4017
(dp4018
g20
I4
sg21
g44
sg23
I1
sg24
I-1
sg25
I1
sg26
g32
sbag0
(g16
g2
Ntp4019
Rp4020
(dp4021
g20
I5
sg21
g48
sg23
(lp4022
I0
aI25
asg24
I0
sg25
I100
sg26
g50
sbag0
(g16
g2
Ntp4023
Rp4024
(dp4025
g20
I17
sg21
g54
sg23
(lp4026
F25.299346036955733
aF30.4537501690068
aF72.52181701608436
asg24
I0
sg25
I100
sg26
g56
sbag0
(g16
g2
Ntp4027
Rp4028
(dp4029
g20
I70
sg21
g60
sg23
(lp4030
F74.99999999999999
aF99.99999999999999
asg24
I0
sg25
I100
sg26
g50
sbag0
(g16
g2
Ntp4031
Rp4032
(dp4033
g20
I72
sg21
g65
sg23
(lp4034
I50
aI50
asg24
I1
sg25
I100
sg26
g65
sbag0
(g16
g2
Ntp4035
Rp4036
(dp4037
g20
I20
sg21
g70
sg23
F0.40150366520751796
sg24
F0.01
sg25
F0.99
sg26
g32
sbag0
(g16
g2
Ntp4038
Rp4039
(dp4040
g20
I21
sg21
g74
sg23
I49
sg24
I1
sg25
I300
sg26
g27
sbasg75
(dp4041
g22
g4005
sg31
g4008
sg36
g4011
sg40
g4014
sg44
g4017
sg48
g4020
sg54
g4024
sg60
g4028
sg65
g4032
sg70
g4036
sg74
g4039
ssg77
Nsbag0
(g9
g2
Ntp4042
Rp4043
(dp4044
g13
I226
sg14
(lp4045
g0
(g16
g2
Ntp4046
Rp4047
(dp4048
g20
I11
sg21
g22
sg23
I38
sg24
I1
sg25
I300
sg26
g27
sbag0
(g16
g2
Ntp4049
Rp4050
(dp4051
g20
I58
sg21
g31
sg23
F0.9999999999999999
sg24
I-1
sg25
I1
sg26
g32
sbag0
(g16
g2
Ntp4052
Rp4053
(dp4054
g20
I13
sg21
g36
sg23
F-0.19499896864377808
sg24
I-1
sg25
I1
sg26
g32
sbag0
(g16
g2
Ntp4055
Rp4056
(dp4057
g20
I14
sg21
g40
sg23
F0.6553687374010722
sg24
I-1
sg25
I1
sg26
g32
sbag0
(g16
g2
Ntp4058
Rp4059
(dp4060
g20
I64
sg21
g44
sg23
F0.712747768275712
sg24
I-1
sg25
I1
sg26
g32
sbag0
(g16
g2
Ntp4061
Rp4062
(dp4063
g20
I16
sg21
g48
sg23
(lp4064
F63.37619698751213
aF76.05567684514904
asg24
I0
sg25
I100
sg26
g50
sbag0
(g16
g2
Ntp4065
Rp4066
(dp4067
g20
I6
sg21
g54
sg23
(lp4068
I25
aI50
aI75
asg24
I0
sg25
I100
sg26
g56
sbag0
(g16
g2
Ntp4069
Rp4070
(dp4071
g20
I7
sg21
g60
sg23
(lp4072
I75
aI100
asg24
I0
sg25
I100
sg26
g50
sbag0
(g16
g2
Ntp4073
Rp4074
(dp4075
g20
I8
sg21
g65
sg23
(lp4076
I50
aI50
asg24
I1
sg25
I100
sg26
g65
sbag0
(g16
g2
Ntp4077
Rp4078
(dp4079
g20
I9
sg21
g70
sg23
F0.95
sg24
F0.01
sg25
F0.99
sg26
g32
sbag0
(g16
g2
Ntp4080
Rp4081
(dp4082
g20
I10
sg21
g74
sg23
I30
sg24
I1
sg25
I300
sg26
g27
sbasg75
(dp4083
g22
g4047
sg31
g4050
sg36
g4053
sg40
g4056
sg44
g4059
sg48
g4062
sg54
g4066
sg60
g4070
sg65
g4074
sg70
g4078
sg74
g4081
ssg77
Nsbasb.